ccollections
defaultdict
p0
(c__builtin__
list
p1
tp2
Rp3
S'healthy controls'
p4
(lp5
S'NCT02421705'
p6
asS'clostridium difficile colitis'
p7
(lp8
S'NCT01477320'
p9
asS'non-ibd colitis'
p10
(lp11
S'NCT02020382'
p12
asS'tuberculosis'
p13
(lp14
S'NCT02135289'
p15
asS'intestinal polyposis'
p16
(lp17
S'NCT01880918'
p18
asS'motor activity'
p19
(lp20
S'NCT02264275'
p21
asS'clostridium difficile infection (cdi)'
p22
(lp23
S'NCT02437591'
p24
asS"wegener's granulomatosis"
p25
(lp26
S'NCT01988506'
p27
asS'disease exacerbation'
p28
(lp29
S'NCT02439372'
p30
asS'pulmonary tuberculosis'
p31
(lp32
S'NCT01503099'
p33
asS'non-metastatic neoplasm'
p34
(lp35
S'NCT01280825'
p36
asS'dysplasia'
p37
(lp38
S'NCT02481687'
p39
asS'sleep'
p40
(lp41
g21
asS'short bowel syndrome (sbs)'
p42
(lp43
S'NCT01674478'
p44
asS'unclassified periodic fever syndromes / autoinflammatory syndromes'
p45
(lp46
S'NCT01952275'
p47
asS'amicrobial pustulosis of the folds'
p48
(lp49
g47
asS'colorectal polyps'
p50
(lp51
S'NCT00622557'
p52
asS'short bowel syndrome'
p53
(lp54
S'NCT02266849'
p55
asS'unclassified iad knee and/or hip arthritis, muscular dystrophy'
p56
(lp57
S'NCT02466217'
p58
asS'anemia, iron-deficiency'
p59
(lp60
S'NCT02680756'
p61
asS'cytomegalovirus infections'
p62
(lp63
g30
asS'aminosalicylic acid'
p64
(lp65
S'NCT02537210'
p66
asS'infections, pneumococcal'
p67
(lp68
S'NCT02255227'
p69
asS'erythema elevatum diutinum'
p70
(lp71
g47
asS'iron deficiency anemia'
p72
(lp73
S'NCT02774057'
p74
aS'NCT02546154'
p75
asS'macular degeneration'
p76
(lp77
S'NCT00695682'
p78
asS'immune-mediated inflammatory disease'
p79
(lp80
g15
asS'chronic obstructive pulmonary disease (copd)'
p81
(lp82
S'NCT02742597'
p83
asS'colon adenoma'
p84
(lp85
S'NCT01719198'
p86
asS'lymphoma'
p87
(lp88
g18
asS'motility disorder of intestine'
p89
(lp90
S'NCT02754869'
p91
asS'portal vein thrombosis'
p92
(lp93
S'NCT01470547'
p94
asS'pediatric inflammatory bowel disease'
p95
(lp96
S'NCT02392221'
p97
asS'collagenous colitis'
p98
(lp99
S'NCT01504048'
p100
asS'complex perianal fistula'
p101
(lp102
S'NCT01314092'
p103
asS'rheumatic diseases'
p104
(lp105
S'NCT02128503'
p106
asS'hiv'
p107
(lp108
g83
asS'other specified inflammatory disorders of skin or subcutaneous tissue'
p109
(lp110
g47
asS'bowel diseases, inflammatory'
p111
(lp112
g69
asS'blood clot'
p113
(lp114
S'NCT02445690'
p115
asS'gastric cancer'
p116
(lp117
S'NCT02426762'
p118
asS'kidney calculi'
p119
(lp120
S'NCT01735461'
p121
asS"sweet's syndrome"
p122
(lp123
g47
asS'idiopathic chronic inflammatory bowel disease'
p124
(lp125
S'NCT02193464'
p126
asS'capsule endoscopy'
p127
(lp128
S'NCT02382705'
p129
asS'rectal cancer'
p130
(lp131
g52
ag55
aS'NCT00534131'
p132
aS'NCT02598414'
p133
asS'anemia'
p134
(lp135
S'NCT02202967'
p136
asS'hirschsprung disease'
p137
(lp138
S'NCT02193685'
p139
asS'left-sided ulcerative colitis'
p140
(lp141
S'NCT01149707'
p142
asS'cryopyrin-associated periodic syndromes /tnf-receptor associated periodic syndrome'
p143
(lp144
g58
asS'pediatric onset'
p145
(lp146
S'NCT00711945'
p147
asS'granulomatous disease'
p148
(lp149
S'NCT01196702'
p150
asS'surgical site infection'
p151
(lp152
g118
asS'inflammatory epidermolysis bullosa aquisita'
p153
(lp154
g47
asS'autoimmune hepatitis'
p155
(lp156
g27
asS"takayasu's disease"
p157
(lp158
g27
asS'systemic lupus erythematosus'
p159
(lp160
g27
asS'patients undergoing routine health care'
p161
(lp162
g36
asS'anoperineal fistula'
p163
(lp164
S'NCT01388257'
p165
asS'rectal prolapse'
p166
(lp167
g18
asS'malnutrition'
p168
(lp169
S'NCT02275676'
p170
asS'triclosan effects on microbial flora.'
p171
(lp172
S'NCT01509976'
p173
asS'schnitzler syndrome'
p174
(lp175
S'NCT00933296'
p176
asS'chronic diarrhea'
p177
(lp178
S'NCT01545063'
p179
aS'NCT02197780'
p180
ag100
asS'uveitis'
p181
(lp182
g58
asS'inflammatory arthritis'
p183
(lp184
S'NCT02538757'
p185
asS'chronic hepatitis'
p186
(lp187
g83
asS'colorectal neoplasms'
p188
(lp189
S'NCT00290524'
p190
aS'NCT02343601'
p191
aS'NCT01819766'
p192
ag18
asS'postoperative disease recurrence'
p193
(lp194
S'NCT02542904'
p195
asS'hepatitis c'
p196
(lp197
g36
asS'gastrointestinal diseases'
p198
(lp199
S'NCT02647866'
p200
aS'NCT02044952'
p201
aS'NCT02445365'
p202
asS'abdominal pain'
p203
(lp204
g180
ag200
asS'amyotrophic lateral sclerosis'
p205
(lp206
S'NCT01954875'
p207
asS'diverticulosis'
p208
(lp209
g83
asS'heart diseases'
p210
(lp211
g36
asS'erythema marginatum'
p212
(lp213
g47
asS'immunoglobulin treatment'
p214
(lp215
g150
asS"behcet's disease"
p216
(lp217
g47
ag27
asS'neutrophilic dermatosis of the dorsal hands (pustular vasculitis)'
p218
(lp219
g47
asS'irritable bowel'
p220
(lp221
g83
asS'peritoneal carcinomatosis with intestinal occlusion'
p222
(lp223
g179
asS"still's disease"
p224
(lp225
g47
asS'acute lymphoblastic leukemia (all)'
p226
(lp227
S'NCT02046694'
p228
asS'gastroparesis'
p229
(lp230
S'NCT01858220'
p231
asS'bacteria'
p232
(lp233
S'NCT01790061'
p234
asS'depression'
p235
(lp236
g21
ag83
aS'NCT02265588'
p237
asS'hyperlipidemia'
p238
(lp239
g83
asS'exacerbation of ulcerative colitis'
p240
(lp241
S'NCT02033408'
p242
asS'heart failure'
p243
(lp244
g83
asS"perianal crohn's disease"
p245
(lp246
S'NCT01915927'
p247
asS'irritable bowel syndrome'
p248
(lp249
g180
aS'NCT02476643'
p250
aS'NCT00883077'
p251
aS'NCT00742118'
p252
aS'NCT02693730'
p253
aS'NCT02351635'
p254
aS'NCT01632488'
p255
asS'asthma'
p256
(lp257
g83
asS'ulcerative colitis, active'
p258
(lp259
g6
asS'oral ulcer'
p260
(lp261
S'NCT02769494'
p262
asS'musculoskeletal pain'
p263
(lp264
g83
asS'infantile acropustulosis'
p265
(lp266
g47
asS"crohn's ileocolitis"
p267
(lp268
S'NCT02281916'
p269
asS'ulcer'
p270
(lp271
g83
asS'erosive pustular dermatosis of the scalp'
p272
(lp273
g47
asS'transient neonatal pustulosis'
p274
(lp275
g47
asS'intestinal tuberculosis'
p276
(lp277
g33
aS'NCT01392365'
p278
asS'korea'
p279
(lp280
S'NCT01731665'
p281
asS'colorectal cancer'
p282
(lp283
S'NCT02156557'
p284
ag118
aS'NCT02726243'
p285
aS'NCT01626963'
p286
aS'NCT01464151'
p287
ag192
aS'NCT01239082'
p288
aS'NCT01739608'
p289
asS'constipation (excl faecal impaction)'
p290
(lp291
S'NCT02575040'
p292
asS'acute generalized exanthematous pustulosis'
p293
(lp294
g47
asS'enteropathic arthritis'
p295
(lp296
g185
asS'rheumatoid neutrophilic dermatitis'
p297
(lp298
g47
asS'ankylosing spondylitis'
p299
(lp300
S'NCT01797224'
p301
ag185
aS'NCT00224562'
p302
ag58
aS'NCT01768858'
p303
aS'NCT02389075'
p304
aS'NCT02750800'
p305
aS'NCT02019602'
p306
ag27
asS'dietary modification'
p307
(lp308
S'NCT02426567'
p309
asS"moderate to severe crohn's disease"
p310
(lp311
S'NCT02148718'
p312
asS'epidemiology'
p313
(lp314
g281
asS'ulcerative colitis associated pouchitis'
p315
(lp316
S'NCT02049502'
p317
asS"crohn's disease, active"
p318
(lp319
g6
asS'diverticulitis'
p320
(lp321
g52
aS'NCT01959087'
p322
ag118
asS'iron deficiency anemia (ida) secondary to inflammatory bowel disease (ibd) or gastric bypass'
p323
(lp324
S'NCT02086968'
p325
asS'polyp of large intestine'
p326
(lp327
g191
asS'microrna profile'
p328
(lp329
S'NCT01686477'
p330
asS'keratoderma blenorrhagicum'
p331
(lp332
g47
asS'neutrophilic urticaria'
p333
(lp334
g47
asS'ileostomy - stoma'
p335
(lp336
g18
asS'ibs'
p337
(lp338
g6
asS'benign colorectal neoplasm'
p339
(lp340
g286
asS'healthy'
p341
(lp342
S'NCT02717117'
p343
ag12
aS'NCT02423460'
p344
asS'psoriatic arthritis'
p345
(lp346
g301
ag185
ag303
ag305
ag306
asS'haematopoietic stem cell transplantation'
p347
(lp348
S'NCT01583712'
p349
asS'proctosigmoiditis'
p350
(lp351
g142
asS'pediatric'
p352
(lp353
S'NCT00265772'
p354
asS'diverticulum, colon'
p355
(lp356
g18
asS'medium vessel vasculitis'
p357
(lp358
g47
asS'crohn\xe2\x80\x99s disease, obesity'
p359
(lp360
S'NCT00488085'
p361
asS'cardiovascular disease'
p362
(lp363
g83
asS'ileal pouch-anal anastomosis'
p364
(lp365
S'NCT01026480'
p366
asS'common variable immunodeficiency'
p367
(lp368
g150
asS'diabetic retinopathy'
p369
(lp370
g78
asS'pancreatitis'
p371
(lp372
S'NCT02281799'
p373
asS'healthy volunteer'
p374
(lp375
g58
asS'cancer'
p376
(lp377
S'NCT01126931'
p378
ag83
asS'plaque psoriasis'
p379
(lp380
g303
asS'neoplasms'
p381
(lp382
S'NCT01688557'
p383
asS'dementia'
p384
(lp385
g83
asS'pustular psoriasis'
p386
(lp387
g47
asS'abscess'
p388
(lp389
S'NCT01145365'
p390
asS'enterocolitis'
p391
(lp392
g139
asS'neurodegenerative diseases'
p393
(lp394
g207
asS'colitis, ischemic'
p395
(lp396
g132
asS'enteritis'
p397
(lp398
S'NCT02639416'
p399
asS"ulcerative colitis and crohn's disease"
p400
(lp401
S'NCT02674308'
p402
asS'radiation enteritis'
p403
(lp404
g179
asS'dehydration, diverting ileostomy, loperamide'
p405
(lp406
S'NCT02263365'
p407
asS'chronic inflammation'
p408
(lp409
S'NCT02395354'
p410
asS'recurrence'
p411
(lp412
S'NCT01876264'
p413
asS'bronchiectasis'
p414
(lp415
g150
asS'gastrointestinal bleeding'
p416
(lp417
S'NCT02465385'
p418
asS'transition from pediatric to adult care.'
p419
(lp420
S'NCT02085083'
p421
asS'fecal incontinence'
p422
(lp423
S'NCT02355834'
p424
asS'metabolomic profile'
p425
(lp426
g330
asS'bowel-associated dermatosis-arthritis syndrome'
p427
(lp428
g47
asS'bleeding'
p429
(lp430
g136
asS'adiposity'
p431
(lp432
g330
asS'inflammatory disease'
p433
(lp434
g36
asS'fistula'
p435
(lp436
g390
ag165
aS'NCT02403232'
p437
ag165
asS'fmf'
p438
(lp439
g58
asS'linear iga bullous dermatosis'
p440
(lp441
g47
asS'type 1 diabetes'
p442
(lp443
g58
asS'rectal bloodloss'
p444
(lp445
g180
asS"alzheimer's disease"
p446
(lp447
g83
asS'clostridium difficile'
p448
(lp449
S'NCT02730325'
p450
aS'NCT02636517'
p451
asS'psoriasis'
p452
(lp453
g185
aS'NCT01504113'
p454
ag302
aS'NCT01657513'
p455
aS'NCT02451839'
p456
ag305
ag27
asS'myositis'
p457
(lp458
g58
asS'perianal fistula'
p459
(lp460
S'NCT01828190'
p461
asS'vasculitis'
p462
(lp463
g58
asS'intestine perforation'
p464
(lp465
g44
asS'atrial fibrillation'
p466
(lp467
g136
asS'nonalcoholic fatty liver disease (nafld)'
p468
(lp469
S'NCT01705522'
p470
asS'colon cancer'
p471
(lp472
g52
asS'vitamin d deficiency'
p473
(lp474
S'NCT01046773'
p475
ag470
asS'hiv reservoirs'
p476
(lp477
S'NCT01942655'
p478
asS'iga pemphigus'
p479
(lp480
g47
asS'parkinson disease'
p481
(lp482
g207
asS'all diagnosed health conditions'
p483
(lp484
S'NCT01931644'
p485
asS'kidney disease'
p486
(lp487
g83
asS'dermatitis herpetiformis'
p488
(lp489
g47
asS'colitis'
p490
(lp491
S'NCT02503514'
p492
ag200
asS'ulcerative colitis'
p493
(lp494
S'NCT01745029'
p495
aS'NCT02469220'
p496
aS'NCT02335281'
p497
aS'NCT02179372'
p498
ag180
aS'NCT02772406'
p499
aS'NCT02138318'
p500
ag250
aS'NCT02054533'
p501
aS'NCT01860651'
p502
ag492
aS'NCT02289417'
p503
aS'NCT01244386'
p504
ag251
ag292
aS'NCT00793130'
p505
aS'NCT00360022'
p506
ag281
aS'NCT02370056'
p507
aS'NCT01505842'
p508
aS'NCT02291523'
p509
aS'NCT02463045'
p510
aS'NCT01914887'
p511
aS'NCT02267694'
p512
aS'NCT00815061'
p513
aS'NCT01418131'
p514
aS'NCT02579733'
p515
aS'NCT00805428'
p516
aS'NCT02084550'
p517
aS'NCT02522767'
p518
aS'NCT02447302'
p519
aS'NCT02165215'
p520
ag52
ag200
aS'NCT02610569'
p521
aS'NCT02161640'
p522
aS'NCT02118584'
p523
aS'NCT02383953'
p524
aS'NCT02330653'
p525
aS'NCT01417728'
p526
aS'NCT02442037'
p527
aS'NCT02413047'
p528
aS'NCT02536404'
p529
aS'NCT02131168'
p530
ag21
aS'NCT00790478'
p531
aS'NCT01393405'
p532
ag451
aS'NCT00621257'
p533
ag15
aS'NCT02620514'
p534
aS'NCT01491997'
p535
aS'NCT01065571'
p536
aS'NCT01010815'
p537
aS'NCT02149043'
p538
aS'NCT02640391'
p539
aS'NCT02683759'
p540
aS'NCT01783119'
p541
aS'NCT02442960'
p542
aS'NCT02368717'
p543
aS'NCT02093780'
p544
aS'NCT02120391'
p545
aS'NCT01765439'
p546
aS'NCT02261636'
p547
aS'NCT01848561'
p548
ag39
aS'NCT02144350'
p549
aS'NCT02100696'
p550
aS'NCT02539368'
p551
aS'NCT02144129'
p552
aS'NCT01941589'
p553
aS'NCT00309660'
p554
aS'NCT01697670'
p555
aS'NCT02274714'
p556
aS'NCT02487238'
p557
aS'NCT02066272'
p558
aS'NCT02084186'
p559
aS'NCT02589665'
p560
aS'NCT02277470'
p561
aS'NCT01771224'
p562
ag253
aS'NCT00292175'
p563
aS'NCT02280629'
p564
aS'NCT01961492'
p565
aS'NCT01111708'
p566
aS'NCT02087878'
p567
aS'NCT02065557'
p568
aS'NCT01417715'
p569
aS'NCT02326155'
p570
aS'NCT02522780'
p571
aS'NCT02531126'
p572
ag418
ag234
ag83
aS'NCT02200445'
p573
aS'NCT02683733'
p574
aS'NCT01947816'
p575
aS'NCT01536509'
p576
aS'NCT02506179'
p577
ag344
aS'NCT00516776'
p578
aS'NCT01458574'
p579
aS'NCT02745457'
p580
aS'NCT02435992'
p581
aS'NCT01494857'
p582
aS'NCT01171807'
p583
aS'NCT02073526'
p584
aS'NCT02130349'
p585
aS'NCT02423512'
p586
aS'NCT02186886'
p587
aS'NCT02136069'
p588
aS'NCT02586259'
p589
aS'NCT02520284'
p590
ag237
aS'NCT01752361'
p591
aS'NCT02308917'
p592
aS'NCT02488954'
p593
ag303
ag55
aS'NCT01417702'
p594
aS'NCT02065622'
p595
aS'NCT01496053'
p596
aS'NCT01470612'
p597
aS'NCT00816491'
p598
aS'NCT02322307'
p599
aS'NCT01040910'
p600
ag305
ag27
aS'NCT02622139'
p601
aS'NCT02163759'
p602
ag30
aS'NCT02142725'
p603
aS'NCT00606346'
p604
aS'NCT01882205'
p605
aS'NCT02665845'
p606
aS'NCT02516384'
p607
aS'NCT01090154'
p608
aS'NCT02171429'
p609
ag470
aS'NCT02618187'
p610
aS'NCT01140789'
p611
ag106
aS'NCT01479660'
p612
aS'NCT02499263'
p613
aS'NCT02093663'
p614
ag6
aS'NCT01671956'
p615
ag242
ag12
aS'NCT02345733'
p616
aS'NCT02217722'
p617
aS'NCT02049775'
p618
ag58
aS'NCT02678052'
p619
ag200
aS'NCT02357537'
p620
aS'NCT01908283'
p621
aS'NCT02129439'
p622
ag66
aS'NCT02497469'
p623
ag132
aS'NCT02318667'
p624
aS'NCT02676817'
p625
aS'NCT02407236'
p626
aS'NCT02463305'
p627
aS'NCT02611830'
p628
aS'NCT02745678'
p629
aS'NCT02412085'
p630
aS'NCT02229344'
p631
aS'NCT02550418'
p632
aS'NCT02438410'
p633
ag18
aS'NCT02612103'
p634
aS'NCT02601300'
p635
aS'NCT02646657'
p636
ag202
aS'NCT02493712'
p637
aS'NCT02469103'
p638
aS'NCT01331551'
p639
asS'anxiety'
p640
(lp641
g83
ag237
asS'sclerosing cholangitis'
p642
(lp643
g27
aS'NCT02424175'
p644
asS'necrotizing enterocolitis (nec)'
p645
(lp646
g44
asS'intestinal lymphomas'
p647
(lp648
g179
asS'pathologic processes'
p649
(lp650
g202
asS'chronic graft versus host disease'
p651
(lp652
S'NCT02352064'
p653
asS'complications of surgical procedures'
p654
(lp655
g118
asS'colonic diseases'
p656
(lp657
g200
aS'NCT02752360'
p658
ag322
ag133
asS'reservoir, ileoanal'
p659
(lp660
S'NCT01604564'
p661
asS'polyps'
p662
(lp663
g383
asS'indeterminate colitis'
p664
(lp665
g558
ag576
ag604
asS'urinary tract problem'
p666
(lp667
g83
asS'systemic lupus erythematosus/antiphospholipid syndrome'
p668
(lp669
g58
asS'microbiota'
p670
(lp671
g234
asS'multimorbidity'
p672
(lp673
g83
asS'intestinal diseases'
p674
(lp675
g200
ag201
aS'NCT02227602'
p676
ag202
asS'chronic granulomatous disease (cgd)'
p677
(lp678
S'NCT01063309'
p679
asS'prematurity'
p680
(lp681
g44
asS'thyroid disorder'
p682
(lp683
g83
asS'stroke'
p684
(lp685
g83
asS'ulcerative colitis, active moderate'
p686
(lp687
S'NCT02390726'
p688
ag615
asS'sleep disturbance'
p689
(lp690
S'NCT02162862'
p691
aS'NCT02245594'
p692
asS'graft versus host disease'
p693
(lp694
S'NCT01596075'
p695
aS'NCT01385124'
p696
aS'NCT01950507'
p697
asS'pyoderma gangrenosum'
p698
(lp699
g47
asS'blood coagulation disorders'
p700
(lp701
g36
asS'diverticular disease'
p702
(lp703
g286
ag133
asS"crohn's disease, remission (6a: with ibs symptoms, 6b: without ibs symptoms)"
p704
(lp705
g6
asS'colostomy'
p706
(lp707
g18
asS'sneddon-wilkinson disease'
p708
(lp709
g47
asS'digestive system diseases'
p710
(lp711
g200
ag201
asS'enterocolitis, necrotizing'
p712
(lp713
S'NCT01005589'
p714
asS'small vessel vasculitis including urticarial vasculitis'
p715
(lp716
g47
asS'autoimmune disease'
p717
(lp718
g200
ag36
asS'ischemic heart disease'
p719
(lp720
g136
asS'gastroesophageal reflux'
p721
(lp722
g83
asS'rheumatoid arthritis'
p723
(lp724
g301
aS'NCT02463916'
p725
ag185
ag302
ag58
ag83
ag303
ag456
ag305
ag306
ag27
asS'severe malnutrition'
p726
(lp727
g399
asS'insulin resistance'
p728
(lp729
g330
asS'primary sclerosing cholangitis'
p730
(lp731
S'NCT02464020'
p732
aS'NCT00161148'
p733
aS'NCT02247622'
p734
ag192
asS'colon polyps'
p735
(lp736
g284
asS'transient ischemic attacks'
p737
(lp738
g83
asS'stenosis'
p739
(lp740
g410
asS'multiple sclerosis'
p741
(lp742
g207
asS'hepatitis b, chronic'
p743
(lp744
g106
asS'chronic fatigue'
p745
(lp746
S'NCT02517151'
p747
asS'adenomatous polyposis coli'
p748
(lp749
g661
asS'quality of life'
p750
(lp751
g21
asS'lymphocytic colitis'
p752
(lp753
g100
asS'arthritis'
p754
(lp755
g185
ag83
asS'painful neuropathy'
p756
(lp757
S'NCT01667029'
p758
asS'non-radiographic evidence-axspa'
p759
(lp760
g306
asS'bullous systemic lupus erythematosus'
p761
(lp762
g47
asS'fatigue'
p763
(lp764
g691
aS'NCT02733276'
p765
asS'osteoporosis'
p766
(lp767
g83
asS'neonatal sepsis'
p768
(lp769
g714
asS'axial spondyloarthritis (axspa)'
p770
(lp771
g306
asS'stem cell transplantation'
p772
(lp773
g697
asS'hypertension'
p774
(lp775
g83
asS'colitis, ulcerative'
p776
(lp777
g661
asS'gastrointestinal stromal tumor'
p778
(lp779
g118
asS'diabetes'
p780
(lp781
g83
asS'children with a deficiency of alpha-1 antitrypsin'
p782
(lp783
S'NCT01862211'
p784
asS'healthy volunteer, ulcerative colitis'
p785
(lp786
S'NCT02749630'
p787
asS'chronic bronchitis'
p788
(lp789
g83
asS'methicillin-resistant staphylococcus aureus'
p790
(lp791
S'NCT02390622'
p792
asS"crohn's disease"
p793
(lp794
g497
ag498
ag180
ag461
aS'NCT02704728'
p795
aS'NCT01266785'
p796
ag501
ag301
aS'NCT02777034'
p797
aS'NCT02465944'
p798
aS'NCT01728870'
p799
ag504
aS'NCT00731809'
p800
aS'NCT02038920'
p801
aS'NCT01881464'
p802
aS'NCT02619552'
p803
aS'NCT01836289'
p804
ag506
ag281
aS'NCT02311660'
p805
ag513
ag619
aS'NCT02453607'
p806
aS'NCT01470599'
p807
aS'NCT02255370'
p808
aS'NCT01826188'
p809
ag52
aS'NCT02130362'
p810
ag524
aS'NCT01881490'
p811
aS'NCT02559037'
p812
ag526
ag528
aS'NCT02365649'
p813
aS'NCT01820247'
p814
ag185
aS'NCT02499783'
p815
ag309
aS'NCT02624414'
p816
aS'NCT02417974'
p817
ag451
ag533
aS'NCT02392286'
p818
aS'NCT02272868'
p819
ag534
aS'NCT02379117'
p820
ag475
aS'NCT02256462'
p821
aS'NCT02097797'
p822
ag410
aS'NCT01548014'
p823
aS'NCT02412553'
p824
ag61
aS'NCT02010762'
p825
aS'NCT02269358'
p826
aS'NCT02649075'
p827
aS'NCT02201693'
p828
aS'NCT02000362'
p829
aS'NCT02240108'
p830
aS'NCT01540292'
p831
aS'NCT01266629'
p832
ag39
aS'NCT01823042'
p833
aS'NCT02405442'
p834
ag551
aS'NCT01874015'
p835
aS'NCT02389790'
p836
ag262
ag354
aS'NCT02450513'
p837
ag556
aS'NCT02641171'
p838
ag413
ag558
ag121
ag302
aS'NCT02039063'
p839
aS'NCT01288053'
p840
aS'NCT01663142'
p841
ag567
aS'NCT01024647'
p842
aS'NCT00513552'
p843
ag570
aS'NCT02330458'
p844
aS'NCT02193048'
p845
aS'NCT02425111'
p846
ag58
aS'NCT01783106'
p847
ag33
aS'NCT01951326'
p848
ag83
aS'NCT01015391'
p849
aS'NCT00353756'
p850
aS'NCT02378688'
p851
aS'NCT00603616'
p852
ag576
aS'NCT01231217'
p853
ag344
ag278
ag578
aS'NCT00275418'
p854
ag580
aS'NCT00886327'
p855
aS'NCT02164877'
p856
aS'NCT00599625'
p857
ag201
ag322
aS'NCT02622763'
p858
aS'NCT02488005'
p859
ag584
ag586
aS'NCT02531113'
p860
aS'NCT02177071'
p861
aS'NCT01569503'
p862
aS'NCT02084290'
p863
aS'NCT01632462'
p864
ag237
aS'NCT02580617'
p865
aS'NCT02186275'
p866
aS'NCT02240121'
p867
aS'NCT02324699'
p868
aS'NCT02193750'
p869
ag596
aS'NCT02580864'
p870
aS'NCT01338740'
p871
ag599
aS'NCT02772458'
p872
ag600
ag456
ag305
ag306
ag27
ag601
aS'NCT02685683'
p873
aS'NCT02225795'
p874
ag179
aS'NCT01986127'
p875
ag604
aS'NCT00692939'
p876
ag147
ag470
aS'NCT02610101'
p877
aS'NCT02574637'
p878
aS'NCT02760836'
p879
ag611
ag692
aS'NCT02065570'
p880
ag12
aS'NCT00922415'
p881
ag437
aS'NCT00609752'
p882
ag292
ag804
ag190
aS'NCT02611817'
p883
aS'NCT00383344'
p884
ag191
ag522
aS'NCT02538354'
p885
aS'NCT02060318'
p886
ag115
ag621
ag530
ag21
aS'NCT01817426'
p887
aS'NCT02631967'
p888
ag15
aS'NCT02321280'
p889
aS'NCT02596893'
p890
ag546
aS'NCT02394028'
p891
ag639
aS'NCT02367183'
p892
aS'NCT02341248'
p893
aS'NCT02646683'
p894
aS'NCT02403323'
p895
ag658
aS'NCT01671579'
p896
aS'NCT02332356'
p897
ag165
ag18
ag634
aS'NCT02513459'
p898
aS'NCT02520843'
p899
aS'NCT02539849'
p900
aS'NCT02472457'
p901
ag106
ag250
ag492
ag195
ag390
ag585
aS'NCT00731172'
p902
ag508
ag242
ag418
aS'NCT01793831'
p903
aS'NCT02675153'
p904
aS'NCT01440699'
p905
ag592
ag502
aS'NCT02763293'
p906
ag569
ag303
ag594
asS'gastrointestinal hemorrhage'
p907
(lp908
g9
asS'thrombosis'
p909
(lp910
g115
asS'chronic arthritis'
p911
(lp912
g136
asS'mild to moderate ulcerative colitis'
p913
(lp914
S'NCT01039597'
p915
asS'fecal microbiota transplantation'
p916
(lp917
g234
asS'hepatosplenic t-cell lymphoma'
p918
(lp919
g567
aS'NCT01804166'
p920
asS'inflammatory bowel disease'
p921
(lp922
S'NCT02048137'
p923
ag497
ag170
ag180
ag691
aS'NCT02478944'
p924
ag502
aS'NCT02614014'
p925
aS'NCT02453776'
p926
ag725
ag504
ag251
aS'NCT02173002'
p927
aS'NCT02526251'
p928
ag806
ag421
ag747
ag522
ag524
aS'NCT02707068'
p929
ag118
ag528
aS'NCT00904878'
p930
ag383
ag451
ag533
aS'NCT01140802'
p931
ag818
ag15
ag534
aS'NCT02433470'
p932
ag285
ag61
aS'NCT02222584'
p933
ag286
ag39
ag903
aS'NCT02624037'
p934
aS'NCT01531075'
p935
ag287
ag557
ag558
ag562
ag765
ag253
ag74
aS'NCT01758926'
p936
ag844
ag254
ag234
aS'NCT01169207'
p937
aS'NCT02098798'
p938
aS'NCT01756963'
p939
ag576
aS'NCT00915044'
p940
aS'NCT02129972'
p941
ag133
aS'NCT02704026'
p942
aS'NCT00001184'
p943
ag584
ag586
aS'NCT02016469'
p944
ag732
aS'NCT01169194'
p945
ag633
ag634
aS'NCT02341742'
p946
aS'NCT01781481'
p947
ag596
aS'NCT02350920'
p948
ag599
ag734
aS'NCT01984879'
p949
aS'NCT02492555'
p950
ag255
aS'NCT02460705'
p951
aS'NCT02614911'
p952
aS'NCT00988273'
p953
aS'NCT02566889'
p954
aS'NCT01851343'
p955
ag106
ag692
aS'NCT01171872'
p956
aS'NCT02560727'
p957
ag492
ag506
aS'NCT02027727'
p958
aS'NCT01974869'
p959
ag200
ag525
aS'NCT01590043'
p960
ag621
ag530
aS'NCT02367326'
p961
ag373
ag551
ag626
ag201
aS'NCT02150551'
p962
ag592
ag304
ag36
ag202
aS'NCT01971970'
p963
ag604
ag284
ag192
ag424
aS'NCT02461784'
p964
aS'NCT02434133'
p965
ag24
ag237
ag841
aS'NCT01653054'
p966
ag803
aS'NCT02182947'
p967
aS'NCT02694588'
p968
ag585
aS'NCT01551563'
p969
ag633
ag601
aS'NCT02364973'
p970
aS'NCT02304666'
p971
asS'neutrophilic eccrine hidradenitis'
p972
(lp973
g47
asS'liver cirrhosis'
p974
(lp975
g94
asS"pediatric crohn's disease"
p976
(lp977
S'NCT02578238'
p978
asS'endometriosis'
p979
(lp980
g18
asS'intestinal volvulus'
p981
(lp982
g18
asS'diverticulosis, colonic'
p983
(lp984
g658
as.