ccollections
defaultdict
p0
(c__builtin__
list
p1
tp2
Rp3
S''
p4
(lp5
S'NCT02048137'
p6
aS'NCT02193464'
p7
aS'NCT01719198'
p8
aS'NCT02352064'
p9
aS'NCT02197780'
p10
aS'NCT02266849'
p11
aS'NCT02772406'
p12
aS'NCT02754869'
p13
aS'NCT02138318'
p14
aS'NCT01596075'
p15
aS'NCT02417974'
p16
aS'NCT02054533'
p17
aS'NCT02478944'
p18
aS'NCT01860651'
p19
aS'NCT02777034'
p20
aS'NCT02390622'
p21
aS'NCT00609752'
p22
aS'NCT02465944'
p23
aS'NCT02453776'
p24
aS'NCT01653054'
p25
aS'NCT01244386'
p26
aS'NCT02222584'
p27
aS'NCT02193685'
p28
aS'NCT02542904'
p29
aS'NCT00793130'
p30
aS'NCT00360022'
p31
aS'NCT02173002'
p32
aS'NCT01731665'
p33
aS'NCT02370056'
p34
aS'NCT01477320'
p35
aS'NCT01504048'
p36
aS'NCT00815061'
p37
aS'NCT00292175'
p38
aS'NCT01974869'
p39
aS'NCT02513459'
p40
aS'NCT02546154'
p41
aS'NCT02343601'
p42
aS'NCT02610569'
p43
aS'NCT02118584'
p44
aS'NCT02426762'
p45
aS'NCT02392221'
p46
aS'NCT00933296'
p47
aS'NCT02060318'
p48
aS'NCT02445690'
p49
aS'NCT01590043'
p50
aS'NCT01417728'
p51
aS'NCT02442037'
p52
aS'NCT02365649'
p53
aS'NCT02763293'
p54
aS'NCT02536404'
p55
aS'NCT02131168'
p56
aS'NCT02499783'
p57
aS'NCT02631967'
p58
aS'NCT01126931'
p59
aS'NCT02476643'
p60
aS'NCT00904878'
p61
aS'NCT01952275'
p62
aS'NCT01470547'
p63
aS'NCT01797224'
p64
aS'NCT02272868'
p65
aS'NCT02433470'
p66
aS'NCT01065571'
p67
aS'NCT02149043'
p68
aS'NCT02395354'
p69
aS'NCT02640391'
p70
aS'NCT02596893'
p71
aS'NCT02614014'
p72
aS'NCT02575040'
p73
aS'NCT01765439'
p74
aS'NCT01942655'
p75
aS'NCT02694588'
p76
aS'NCT01005589'
p77
aS'NCT02624037'
p78
aS'NCT01531075'
p79
aS'NCT01950507'
p80
aS'NCT00534131'
p81
aS'NCT02144129'
p82
aS'NCT01874015'
p83
aS'NCT02389790'
p84
aS'NCT01464151'
p85
aS'NCT01697670'
p86
aS'NCT01385124'
p87
aS'NCT00275418'
p88
aS'NCT02450513'
p89
aS'NCT02274714'
p90
aS'NCT02641171'
p91
aS'NCT01876264'
p92
aS'NCT02020382'
p93
aS'NCT00922415'
p94
aS'NCT02084186'
p95
aS'NCT01196702'
p96
aS'NCT01604564'
p97
aS'NCT00224562'
p98
aS'NCT02693730'
p99
aS'NCT01819766'
p100
aS'NCT02039063'
p101
aS'NCT02355834'
p102
aS'NCT01663142'
p103
aS'NCT01961492'
p104
aS'NCT01111708'
p105
aS'NCT02065557'
p106
aS'NCT01862211'
p107
aS'NCT02202967'
p108
aS'NCT02403323'
p109
aS'NCT01266785'
p110
aS'NCT02531126'
p111
aS'NCT01503099'
p112
aS'NCT01951326'
p113
aS'NCT02742597'
p114
aS'NCT01931644'
p115
aS'NCT00353756'
p116
aS'NCT02098798'
p117
aS'NCT01063309'
p118
aS'NCT01858220'
p119
aS'NCT02378688'
p120
aS'NCT01756963'
p121
aS'NCT01536509'
p122
aS'NCT02423460'
p123
aS'NCT00516776'
p124
aS'NCT00915044'
p125
aS'NCT02318667'
p126
aS'NCT02434133'
p127
aS'NCT02745457'
p128
aS'NCT00886327'
p129
aS'NCT02435992'
p130
aS'NCT02135289'
p131
aS'NCT02437591'
p132
aS'NCT02760836'
p133
aS'NCT02704026'
p134
aS'NCT00001184'
p135
aS'NCT02073526'
p136
aS'NCT02130349'
p137
aS'NCT01804166'
p138
aS'NCT01551563'
p139
aS'NCT02421705'
p140
aS'NCT02531113'
p141
aS'NCT02412085'
p142
aS'NCT01569503'
p143
aS'NCT01686477'
p144
aS'NCT02550418'
p145
aS'NCT02308917'
p146
aS'NCT02438410'
p147
aS'NCT00488085'
p148
aS'NCT01880918'
p149
aS'NCT02612103'
p150
aS'NCT01781481'
p151
aS'NCT02065622'
p152
aS'NCT01496053'
p153
aS'NCT02580864'
p154
aS'NCT02350920'
p155
aS'NCT00622557'
p156
aS'NCT02322307'
p157
aS'NCT01915927'
p158
aS'NCT02247622'
p159
aS'NCT02622139'
p160
aS'NCT02439372'
p161
aS'NCT01984879'
p162
aS'NCT01674478'
p163
aS'NCT00711945'
p164
aS'NCT02639416'
p165
aS'NCT01090154'
p166
aS'NCT01705522'
p167
aS'NCT02574637'
p168
aS'NCT02614911'
p169
aS'NCT02049775'
p170
aS'NCT01169194'
p171
aS'NCT01140789'
p172
aS'NCT01583712'
p173
aS'NCT01851343'
p174
aS'NCT02364973'
p175
aS'NCT01171872'
p176
aS'NCT02065570'
p177
asS'vancomycin'
p178
(lp179
S'NCT02330653'
p180
aS'NCT02618187'
p181
asS'allergy'
p182
(lp183
S'NCT00883077'
p184
aS'NCT00731809'
p185
aS'NCT02156557'
p186
aS'NCT02730325'
p187
aS'NCT02345733'
p188
aS'NCT02291523'
p189
aS'NCT02267694'
p190
aS'NCT00383344'
p191
aS'NCT02390726'
p192
ag180
aS'NCT02538757'
p193
aS'NCT00790478'
p194
aS'NCT02624414'
p195
aS'NCT02636517'
p196
aS'NCT02321280'
p197
ag197
aS'NCT02680756'
p198
aS'NCT02649075'
p199
aS'NCT02481687'
p200
aS'NCT02281799'
p201
aS'NCT02465385'
p202
aS'NCT00742118'
p203
aS'NCT02676817'
p204
aS'NCT01826188'
p205
aS'NCT02646683'
p206
aS'NCT01417715'
p207
aS'NCT00513552'
p208
aS'NCT01758926'
p209
aS'NCT02425111'
p210
aS'NCT02200445'
p211
aS'NCT00603616'
p212
aS'NCT02033408'
p213
aS'NCT02598414'
p214
aS'NCT02281916'
p215
aS'NCT02227602'
p216
aS'NCT02469103'
p217
aS'NCT00695682'
p218
aS'NCT01882205'
p219
aS'NCT02665845'
p220
ag181
aS'NCT02046694'
p221
asS'mucosa'
p222
(lp223
S'NCT02407236'
p224
asS'sleep'
p225
(lp226
S'NCT02162862'
p227
aS'NCT02311660'
p228
aS'NCT02245594'
p229
asS'mesalazine'
p230
(lp231
S'NCT02255370'
p232
aS'NCT01671956'
p233
ag233
aS'NCT01540292'
p234
aS'NCT01338740'
p235
asS'nitrofurantoin'
p236
(lp237
g214
asS'loperamide'
p238
(lp239
g187
aS'NCT01820247'
p240
aS'NCT02044952'
p241
aS'NCT01015391'
p242
aS'NCT01823042'
p243
asS'prothrombin'
p244
(lp245
g207
aS'NCT01417702'
p246
aS'NCT00816491'
p247
asS'death'
p248
(lp249
S'NCT01280825'
p250
asS'cholestyramine'
p251
(lp252
S'NCT01046773'
p253
aS'NCT02367183'
p254
asS'chlorambucil'
p255
(lp256
S'NCT02678052'
p257
ag257
aS'NCT02647866'
p258
asS'valacyclovir'
p259
(lp260
g193
asS'denosumab'
p261
(lp262
g197
asS'bisacodyl'
p263
(lp264
g217
asS'pentasa'
p265
(lp266
g189
asS'prednisolone'
p267
(lp268
S'NCT02000362'
p269
ag269
ag200
aS'NCT01783106'
p270
aS'NCT02164877'
p271
asS'clopidogrel'
p272
(lp273
S'NCT01505842'
p274
asS'diphenoxylate'
p275
(lp276
g240
ag241
ag242
ag243
asS'rna'
p277
(lp278
g258
aS'NCT00692939'
p279
asS'humira'
p280
(lp281
S'NCT02130362'
p282
aS'NCT01848561'
p283
aS'NCT01947816'
p284
aS'NCT01768858'
p285
ag285
aS'NCT02578238'
p286
asS'fat'
p287
(lp288
S'NCT01771224'
p289
asS'rifampin'
p290
(lp291
g212
asS'sinus'
p292
(lp293
S'NCT02559037'
p294
asS'corticotropin'
p295
(lp296
S'NCT02392286'
p297
aS'NCT00805428'
p298
aS'NCT02379117'
p299
ag197
aS'NCT01790061'
p300
aS'NCT02560727'
p301
asS'crp'
p302
(lp303
S'NCT01728870'
p304
asS'aluminum'
p305
(lp306
g218
asS'oxygen'
p307
(lp308
S'NCT02093780'
p309
ag234
aS'NCT02225795'
p310
asS'gentamicin'
p311
(lp312
S'NCT01914887'
p313
asS'cyclosporine'
p314
(lp315
S'NCT01231217'
p316
aS'NCT01393405'
p317
aS'NCT02289417'
p318
ag228
aS'NCT02611817'
p319
aS'NCT02453607'
p320
aS'NCT02447302'
p321
ag232
ag258
aS'NCT02442960'
p322
ag269
aS'NCT02240108'
p323
aS'NCT02589665'
p324
ag254
aS'NCT02280629'
p325
aS'NCT01149707'
p326
aS'NCT02611830'
p327
ag270
ag242
ag213
aS'NCT01494857'
p328
aS'NCT00731172'
p329
aS'NCT02240121'
p330
aS'NCT02601300'
p331
aS'NCT02148718'
p332
aS'NCT02445365'
p333
ag243
aS'NCT02424175'
p334
ag220
ag181
asS'solution'
p335
(lp336
g217
asS'crf'
p337
(lp338
S'NCT01881464'
p339
asS'erythromycin'
p340
(lp341
S'NCT00599625'
p342
asS'anakinra'
p343
(lp344
S'NCT01145365'
p345
aS'NCT02451839'
p346
asS'release'
p347
(lp348
g258
aS'NCT01908283'
p349
aS'NCT02217722'
p350
aS'NCT02580617'
p351
aS'NCT02324699'
p352
aS'NCT01039597'
p353
asS'enema'
p354
(lp355
g258
ag258
ag180
aS'NCT02129439'
p356
ag269
aS'NCT01239082'
p357
ag328
asS'wellbutrin'
p358
(lp359
g227
asS'anesthetic'
p360
(lp361
S'NCT01440699'
p362
aS'NCT01314092'
p363
ag279
asS'opacity'
p364
(lp365
g218
asS'nicotine'
p366
(lp367
S'NCT02704728'
p368
asS'antibiotic'
p369
(lp370
S'NCT02469220'
p371
aS'NCT02463916'
p372
aS'NCT01954875'
p373
aS'NCT02383953'
p374
ag192
aS'NCT01817426'
p375
aS'NCT02426567'
p376
aS'NCT01140802'
p377
aS'NCT01491997'
p378
aS'NCT01010815'
p379
aS'NCT02097797'
p380
ag233
ag345
ag345
aS'NCT00265772'
p381
ag350
aS'NCT02341248'
p382
aS'NCT01509976'
p383
aS'NCT01392365'
p384
aS'NCT02016469'
p385
aS'NCT02586259'
p386
aS'NCT02464020'
p387
aS'NCT01632462'
p388
aS'NCT00161148'
p389
aS'NCT02520843'
p390
aS'NCT01479660'
p391
asS'luminal'
p392
(lp393
g390
asS'probenecid'
p394
(lp395
g317
ag214
asS'golimumab'
p396
(lp397
g321
ag258
ag356
aS'NCT02277470'
p398
aS'NCT02506179'
p399
aS'NCT02186886'
p400
aS'NCT02229344'
p401
ag331
asS'acitretin'
p402
(lp403
g317
asS'sucralfate'
p404
(lp405
g270
asS'b3'
p406
(lp407
S'NCT02201693'
p408
asS'methotrexate'
p409
(lp410
g316
ag317
aS'NCT02038920'
p411
aS'NCT01836289'
p412
ag228
ag320
ag232
ag258
aS'NCT02538354'
p413
aS'NCT02269358'
p414
aS'NCT02367326'
p415
ag345
ag325
ag326
ag270
ag215
aS'NCT02177071'
p416
ag329
ag235
aS'NCT02019602'
p417
ag333
ag334
asS'arm'
p418
(lp419
g188
aS'NCT02161640'
p420
aS'NCT02382705'
p421
ag421
asS'phenylbutazone'
p422
(lp423
g214
asS'alcohol'
p424
(lp425
S'NCT01745029'
p426
aS'NCT02275676'
p427
ag227
ag317
ag297
ag318
ag187
aS'NCT02526251'
p428
ag313
aS'NCT02357537'
p429
ag193
ag194
ag356
ag322
ag233
ag269
aS'NCT01266629'
p430
ag203
ag254
ag326
ag210
aS'NCT01941589'
p431
aS'NCT01171807'
p432
ag216
aS'NCT02520284'
p433
aS'NCT02265588'
p434
ag329
ag351
aS'NCT01752361'
p435
aS'NCT02086968'
p436
ag331
ag235
ag417
aS'NCT02492555'
p437
ag220
aS'NCT02610101'
p438
aS'NCT02622763'
p439
aS'NCT02128503'
p440
ag440
ag353
aS'NCT02144350'
p441
ag441
asS'metoclopramide'
p442
(lp443
g217
asS'caffeine'
p444
(lp445
S'NCT02463045'
p446
asS'rifabutin'
p447
(lp448
g212
asS'phosphate'
p449
(lp450
g217
asS'il2'
p451
(lp452
S'NCT01988506'
p453
asS'ra'
p454
(lp455
S'NCT02389075'
p456
ag456
aS'NCT02750800'
p457
asS'leflunomide'
p458
(lp459
g417
asS'screen'
p460
(lp461
S'NCT02412553'
p462
ag462
ag353
ag353
asS'body'
p463
(lp464
S'NCT01783119'
p465
aS'NCT01626963'
p466
ag242
aS'NCT01671579'
p467
aS'NCT01959087'
p468
aS'NCT02150551'
p469
ag243
asS'phenylketonuria'
p470
(lp471
S'NCT02084550'
p472
asS'fiber'
p473
(lp474
S'NCT02745678'
p475
asS'uterine'
p476
(lp477
S'NCT01735461'
p478
asS'etanercept'
p479
(lp480
S'NCT02049502'
p481
ag356
asS'efalizumab'
p482
(lp483
g321
aS'NCT02165215'
p484
ag258
aS'NCT02100696'
p485
aS'NCT02497469'
p486
ag210
aS'NCT02136069'
p487
aS'NCT02163759'
p488
aS'NCT02171429'
p489
asS'ntr'
p490
(lp491
S'NCT02010762'
p492
asS'asc'
p493
(lp494
S'NCT02403232'
p495
asS'asa'
p496
(lp497
S'NCT00290524'
p498
ag190
ag472
aS'NCT01688557'
p499
ag356
aS'NCT02263365'
p500
ag214
aS'NCT02093663'
p501
asS'adalimumab'
p502
(lp503
g411
ag321
ag258
aS'NCT02256462'
p504
ag356
ag233
ag269
ag486
ag486
aS'NCT02087878'
p505
ag270
aS'NCT02332356'
p506
ag399
ag328
ag328
ag469
ag401
ag285
ag331
ag235
ag346
ag457
ag457
ag457
aS'NCT02685683'
p507
ag334
aS'NCT02499263'
p508
asS'care'
p509
(lp510
S'NCT02733276'
p511
aS'NCT02085083'
p512
ag282
aS'NCT02707068'
p513
aS'NCT01881490'
p514
ag196
aS'NCT02620514'
p515
ag299
aS'NCT02182947'
p516
aS'NCT01026480'
p517
aS'NCT02120391'
p518
ag201
aS'NCT01545063'
p519
aS'NCT02769494'
p520
ag350
aS'NCT01288053'
p521
aS'NCT01169207'
p522
aS'NCT01739608'
p523
aS'NCT02752360'
p524
ag383
aS'NCT01458574'
p525
aS'NCT02129972'
p526
ag387
aS'NCT01470612'
p527
aS'NCT02772458'
p528
aS'NCT01040910'
p529
ag457
aS'NCT02493712'
p530
aS'NCT01632488'
p531
aS'NCT02460705'
p532
aS'NCT02472457'
p533
aS'NCT00988273'
p534
ag508
asS'hbsag'
p535
(lp536
g322
ag326
ag332
aS'NCT02255227'
p537
ag353
asS'rifapentine'
p538
(lp539
g212
asS'kineret'
p540
(lp541
g345
asS'aloe'
p542
(lp543
g465
asS'allopurinol'
p544
(lp545
g415
asS'protection'
p546
(lp547
g362
aS'NCT02717117'
p548
aS'NCT02517151'
p549
aS'NCT02466217'
p550
aS'NCT02488954'
p551
aS'NCT02341742'
p552
ag453
asS'insulin'
p553
(lp554
g414
ag467
asS'tofacitinib'
p555
(lp556
g411
ag321
ag401
asS'remicade'
p557
(lp558
S'NCT02539368'
p559
ag559
ag208
ag399
asS'interferon'
p560
(lp561
S'NCT01470599'
p562
ag258
ag526
ag351
ag353
asS'fluorescein'
p563
(lp564
g184
ag186
ag207
ag218
ag531
asS'cyclophosphamide'
p565
(lp566
g257
ag257
ag258
asS'haloperidol'
p567
(lp568
g214
asS'lactulose'
p569
(lp570
S'NCT02516384'
p571
asS'doxycycline'
p572
(lp573
g270
asS'kind'
p574
(lp575
g481
ag304
asS'ciprofloxacin'
p576
(lp577
g270
ag388
asS'dna'
p578
(lp579
g357
asS'xanthine'
p580
(lp581
g446
asS'5-asa'
p582
(lp583
S'NCT02335281'
p584
aS'NCT02368717'
p585
ag585
ag585
ag318
ag189
ag446
aS'NCT02522767'
p586
ag258
ag180
ag378
ag323
aS'NCT01793831'
p587
ag486
ag254
ag206
aS'NCT02522780'
p588
ag475
aS'NCT02193048'
p589
aS'NCT02351635'
p590
ag271
ag330
ag331
asS'aminotransferase'
p591
(lp592
S'NCT02413047'
p593
ag233
ag233
ag521
ag210
ag210
ag469
ag469
aS'NCT02186275'
p594
asS'naltrexone'
p595
(lp596
g469
asS'simponi'
p597
(lp598
g399
asS'start'
p599
(lp600
g368
aS'NCT02503514'
p601
ag411
aS'NCT02264275'
p602
ag380
ag356
aS'NCT02487238'
p603
aS'NCT02330458'
p604
ag388
aS'NCT02193750'
p605
ag605
ag334
ag334
asS'pa'
p606
(lp607
g318
asS'metronidazole'
p608
(lp609
g368
ag192
ag180
ag269
ag388
ag235
ag279
asS'metformin'
p610
(lp611
g571
asS'rifaximin'
p612
(lp613
g212
asS'aspirin'
p614
(lp615
g585
ag194
ag233
aS'NCT02774057'
p616
ag326
ag326
ag590
ag329
ag456
ag456
ag391
aS'NCT02304666'
p617
ag501
ag501
asS'phenytoin'
p618
(lp619
S'NCT00621257'
p620
ag214
asS'vedolizumab'
p621
(lp622
g228
ag446
ag232
ag484
ag258
aS'NCT02394028'
p623
ag485
aS'NCT02674308'
p624
ag254
ag206
ag210
ag399
aS'NCT02423512'
p625
ag487
ag401
ag331
aS'NCT02646657'
p626
ag507
ag488
ag334
ag489
asS'potassium'
p627
(lp628
S'NCT01418131'
p629
ag629
aS'NCT02463305'
p630
asS'carbamazepine'
p631
(lp632
g620
asS'acyclovir'
p633
(lp634
g193
asS'rituximab'
p635
(lp636
g321
ag258
ag486
ag210
asS'safeguard'
p637
(lp638
S'NCT02726243'
p639
asS'cellcept'
p640
(lp641
g181
asS'regimen'
p642
(lp643
g446
ag446
ag620
ag213
ag342
ag310
ag279
asS'bismuth'
p644
(lp645
g187
asS'mc'
p646
(lp647
g468
asS'sulfasalazine'
p648
(lp649
g317
aS'NCT01667029'
p650
ag401
asS'spironolactone'
p651
(lp652
S'NCT02461784'
p653
asS'calcium'
p654
(lp655
g194
ag492
asS'tnf'
p656
(lp657
g316
aS'NCT01828190'
p658
ag317
ag318
aS'NCT02619552'
p659
ag659
ag412
ag228
ag446
ag313
ag258
ag375
ag380
ag492
ag233
ag309
ag415
ag234
ag345
aS'NCT02066272'
p660
ag339
ag325
ag630
aS'NCT01024647'
p661
ag475
ag270
aS'NCT01657513'
p662
ag211
ag399
ag213
ag328
ag328
ag215
aS'NCT02084290'
p663
ag663
ag329
ag551
aS'NCT02749630'
p664
aS'NCT01971970'
p665
ag665
aS'NCT01986127'
p666
ag666
aS'NCT02539849'
p667
ag220
ag438
ag537
asS'magnesium'
p668
(lp669
g571
asS'iron'
p670
(lp671
g198
ag198
ag198
ag198
ag616
ag616
ag357
ag436
ag436
ag436
ag436
asS'plug'
p672
(lp673
S'NCT01388257'
p674
asS'inulin'
p675
(lp676
g667
asS'mannitol'
p677
(lp678
g329
asS'azathioprine'
p679
(lp680
g316
ag317
ag411
ag228
ag446
aS'NCT02579733'
p681
aS'NCT02683759'
p682
ag465
ag322
ag233
ag200
ag345
aS'NCT00309660'
p683
ag325
ag326
ag270
aS'NCT02683733'
p684
ag215
ag401
ag235
ag333
asS'iodine'
p685
(lp686
g185
asS'entyvio'
p687
(lp688
g257
ag257
ag399
asS'interleukin-10'
p689
(lp690
g334
asS'ibuprofen'
p691
(lp692
g501
asS'phenobarbital'
p693
(lp694
g620
ag214
asS'streptozocin'
p695
(lp696
g317
asS'injectafer'
p697
(lp698
g436
asS'primidone'
p699
(lp700
g214
asS'melatonin'
p701
(lp702
g194
ag194
asS'ustekinumab'
p703
(lp704
g232
asS'isoniazid'
p705
(lp706
S'NCT01504113'
p707
asS'glycogen'
p708
(lp709
S'NCT00606346'
p710
asS'warfarin'
p711
(lp712
S'NCT02179372'
p713
ag274
ag214
ag456
ag456
asS'natalizumab'
p714
(lp715
g228
ag321
ag484
ag258
ag623
ag485
ag486
ag254
ag210
ag399
ag625
ag487
ag331
ag507
ag488
ag334
ag489
asS'sirolimus'
p716
(lp717
g318
ag228
ag323
aS'NCT02675153'
p718
ag254
ag242
ag330
ag331
ag243
asS'infliximab'
p719
(lp720
g495
ag321
aS'NCT02027727'
p721
ag258
ag240
ag241
ag504
aS'NCT01548014'
p722
ag233
ag414
ag269
ag559
aS'NCT02326155'
p723
ag270
ag242
ag506
ag399
ag213
ag342
ag328
ag328
ag469
aS'NCT02488005'
p724
ag416
ag416
ag401
ag388
ag331
ag235
ag235
ag235
ag507
ag243
ag334
ag279
aS'NCT02566889'
p725
asS'ketoconazole'
p726
(lp727
g653
asS'acetaminophen'
p728
(lp729
g233
asS'p450'
p730
(lp731
g620
ag594
asS'mercaptopurine'
p732
(lp733
g682
ag322
ag270
ag684
asS'prednisone'
p734
(lp735
g317
ag659
ag228
ag193
ag233
ag309
aS'NCT02405442'
p736
ag210
ag342
ag469
ag235
ag220
asS'budesonide'
p737
(lp738
S'NCT02261636'
p739
ag269
ag270
ag352
ag235
asS'mesalamine'
p740
(lp741
S'NCT02537210'
p742
aS'NCT01331551'
p743
ag325
ag325
ag326
asS'disulfiram'
p744
(lp745
g441
asS'inflectra'
p746
(lp747
g559
ag559
asS'amiodarone'
p748
(lp749
g441
asS'purpose'
p750
(lp751
g421
asS'hydroxychloroquine'
p752
(lp753
g270
asS'tysabri'
p754
(lp755
g399
asS'thalidomide'
p756
(lp757
g318
ag319
ag321
ag258
ag269
ag324
ag254
ag327
ag416
ag329
ag331
ag334
ag334
asS'tacrolimus'
p758
(lp759
g316
ag318
ag411
ag228
ag629
ag319
ag321
ag232
ag258
ag269
ag323
ag254
ag325
ag630
ag327
ag431
ag242
ag211
ag213
ag328
ag329
ag330
ag331
ag332
ag243
ag334
ag220
ag181
asS'riboflavin'
p760
(lp761
g413
ag413
asS'multivitamin'
p762
(lp763
g413
asS'6-mercaptopurine'
p764
(lp765
g316
ag411
ag345
ag325
aS'NCT02142725'
p766
ag501
asS'beclomethasone'
p767
(lp768
g739
as.