ccollections
defaultdict
p0
(c__builtin__
dict
p1
tp2
Rp3
S'sclerosing cholangitis'
p4
(dp5
S'Biological'
p6
F0.5
sS'Drug'
p7
F0.5
ssS'unclassified periodic fever syndromes / autoinflammatory syndromes-Procedure'
p8
(dp9
sS'neutrophilic urticaria-Procedure'
p10
(dp11
sS'non-radiographic evidence-axspa-Procedure'
p12
(dp13
S'alcohol'
p14
F1.0
sS'leflunomide'
p15
F1.0
sS'allergy'
p16
F0.0
sS'mucosa'
p17
F0.0
sS'sleep'
p18
F0.0
sS'mesalazine'
p19
F0.0
sS'nitrofurantoin'
p20
F0.0
sS'methotrexate'
p21
F1.0
sS'hydroxychloroquine'
p22
F0.0
sS'vancomycin'
p23
F0.0
ssS'dysplasia'
p24
(dp25
S'Other'
p26
F1.0
ssS'sleep'
p27
(dp28
S'Behavioral'
p29
F1.0
ssS'inflammatory bowel disease-Other'
p30
(dp31
S'azathioprine'
p32
F0.05
sS'prednisolone'
p33
F0.05
sg14
F0.2
sS'5-asa'
p34
F0.05
sg16
F0.05
sS'allopurinol'
p35
F0.05
sS'tnf'
p36
F0.05
sg21
F0.05
sS'antibiotic'
p37
F0.1
sS'care'
p38
F0.05
ssS'clostridium difficile colitis-Drug'
p39
(dp40
S'death'
p41
F0.0
sg23
F0.0
sg16
F0.0
sg17
F0.0
sS'natalizumab'
p42
F0.0
sg18
F0.0
sg19
F0.0
sg20
F0.0
sS'loperamide'
p43
F0.0
sg22
F0.0
ssS'gastric cancer-Device'
p44
(dp45
g41
F0.0
sg23
F0.0
sg16
F0.0
sg17
F0.0
sg42
F0.0
sg18
F0.0
sg19
F0.0
sg20
F0.0
sg43
F0.0
sg22
F0.0
ssS'dysplasia-Other'
p46
(dp47
g32
F1.0
sg33
F1.0
sg23
F0.0
sg16
F1.0
sg17
F0.0
sg18
F0.0
sg19
F0.0
sg20
F0.0
sg43
F0.0
sg22
F0.0
ssS'unclassified iad knee and/or hip arthritis, muscular dystrophy'
p48
(dp49
S'Other'
p50
F1.0
ssS"takayasu's disease-Drug"
p51
(dp52
g23
F0.0
sg16
F0.0
sg17
F0.0
sS'protection'
p53
F1.0
sS'il2'
p54
F1.0
sg19
F0.0
sg20
F0.0
sg43
F0.0
sg18
F0.0
sg22
F0.0
ssS'aminosalicylic acid'
p55
(dp56
S'Drug'
p57
F1.0
ssS'healthy controls'
p58
(dp59
S'Other'
p60
F1.0
ssS'iron deficiency anemia'
p61
(dp62
S'Drug'
p63
F1.0
ssS'macular degeneration'
p64
(dp65
S'Drug'
p66
F1.0
ssS'arthritis-Drug'
p67
(dp68
S'prednisone'
p69
F1.0
sg16
F1.0
sg23
F0.0
sg17
F0.0
sS'valacyclovir'
p70
F1.0
sg18
F0.0
sg19
F0.0
sS'acyclovir'
p71
F1.0
sg22
F0.0
sg14
F1.0
ssS'recurrence'
p72
(dp73
S'Procedure'
p74
F1.0
ssS'colon adenoma'
p75
(dp76
sS'motility disorder of intestine'
p77
(dp78
sS'perianal fistula-Other'
p79
(dp80
g23
F0.0
sg16
F0.0
sg17
F0.0
sg42
F0.0
sg36
F1.0
sg18
F0.0
sg19
F0.0
sg20
F0.0
sg43
F0.0
sg22
F0.0
ssS'pediatric inflammatory bowel disease'
p81
(dp82
sS'collagenous colitis'
p83
(dp84
S'Procedure'
p85
F1.0
ssS'rheumatic diseases'
p86
(dp87
S'Other'
p88
F1.0
ssS"crohn's disease-Device"
p89
(dp90
S'sinus'
p91
F0.07142857142857142
sg16
F0.14285714285714285
sS'cyclosporine'
p92
F0.07142857142857142
sg42
F0.07142857142857142
sg36
F0.14285714285714285
sg18
F0.07142857142857142
sS'infliximab'
p93
F0.14285714285714285
sg21
F0.07142857142857142
sS'crf'
p94
F0.07142857142857142
sS'prothrombin'
p95
F0.14285714285714285
ssS'rheumatoid arthritis'
p96
(dp97
S'Biological'
p98
F0.18181818181818182
sS'Other'
p99
F0.18181818181818182
sS'Procedure'
p100
F0.09090909090909091
sS'Drug'
p101
F0.2727272727272727
sS'Behavioral'
p102
F0.09090909090909091
ssS'capsule endoscopy'
p103
(dp104
sS'anemia'
p105
(dp106
S'Drug'
p107
F1.0
ssS'ankylosing spondylitis-Biological'
p108
(dp109
g14
F1.0
sg15
F0.5
sg16
F0.5
sg23
F0.0
sg17
F0.0
sg70
F0.5
sg71
F0.5
sg21
F0.5
sg22
F0.0
sg69
F0.5
ssS'ulcerative colitis-Drug'
p110
(dp111
g32
F0.11764705882352941
sg14
F0.1323529411764706
sg34
F0.14705882352941177
sS'efalizumab'
p112
F0.11764705882352941
sg16
F0.10294117647058823
sg92
F0.19117647058823528
sg42
F0.1323529411764706
sg36
F0.17647058823529413
sS'tacrolimus'
p113
F0.20588235294117646
sS'vedolizumab'
p114
F0.1323529411764706
ssS'colitis-Drug'
p115
(dp116
S'rna'
p117
F1.0
sS'chlorambucil'
p118
F1.0
sg92
F1.0
sS'golimumab'
p119
F1.0
sg42
F1.0
sg21
F1.0
sg36
F1.0
sS'release'
p120
F1.0
sS'enema'
p121
F1.0
sg112
F1.0
ssS'pediatric onset'
p122
(dp123
sS'gastrointestinal bleeding-Drug'
p124
(dp125
g41
F0.0
sg23
F0.0
sg16
F1.0
sg17
F0.0
sg42
F0.0
sg18
F0.0
sg19
F0.0
sg20
F0.0
sg43
F0.0
sg22
F0.0
ssS"ulcerative colitis and crohn's disease-Other"
p126
(dp127
g114
F1.0
sg16
F0.0
sg17
F0.0
sg42
F0.0
sg18
F0.0
sg19
F0.0
sg20
F0.0
sg43
F0.0
sg22
F0.0
sg23
F0.0
ssS'exacerbation of ulcerative colitis-Drug'
p128
(dp129
S'regimen'
p130
F1.0
sg23
F0.0
sg16
F1.0
sg92
F1.0
sg17
F0.0
sg113
F1.0
sg36
F1.0
sg18
F0.0
sg93
F1.0
sg22
F0.0
ssS'benign colorectal neoplasm-Procedure'
p131
(dp132
S'body'
p133
F1.0
sg23
F0.0
sg16
F0.0
sg17
F0.0
sg42
F0.0
sg18
F0.0
sg19
F0.0
sg20
F0.0
sg43
F0.0
sg22
F0.0
ssS'inflammatory arthritis'
p134
(dp135
S'Biological'
p136
F1.0
sS'Drug'
p137
F1.0
ssS'neutrophilic dermatosis of the dorsal hands (pustular vasculitis)-Procedure'
p138
(dp139
sS'ulcer'
p140
(dp141
S'Behavioral'
p142
F1.0
ssS'bleeding'
p143
(dp144
S'Drug'
p145
F1.0
ssS'blood coagulation disorders'
p146
(dp147
sS'heart diseases'
p148
(dp149
sS'left-sided ulcerative colitis-Drug'
p150
(dp151
S'hbsag'
p152
F1.0
sg32
F1.0
sg14
F1.0
sg23
F0.0
sS'mesalamine'
p153
F1.0
sg16
F0.0
sg92
F1.0
sg21
F1.0
sg22
F0.0
sS'aspirin'
p154
F1.0
ssS'inflammatory bowel disease-Device'
p155
(dp156
S'corticotropin'
p157
F0.07692307692307693
sS'interferon'
p158
F0.07692307692307693
sg16
F0.07692307692307693
sg92
F0.07692307692307693
sS'probenecid'
p159
F0.07692307692307693
sS'asa'
p160
F0.15384615384615385
sg53
F0.07692307692307693
sg20
F0.07692307692307693
sg21
F0.07692307692307693
sg38
F0.23076923076923078
ssS'amicrobial pustulosis of the folds'
p161
(dp162
S'Procedure'
p163
F1.0
ssS'proctosigmoiditis-Drug'
p164
(dp165
g152
F1.0
sg32
F1.0
sg14
F1.0
sg23
F0.0
sg153
F1.0
sg16
F0.0
sg92
F1.0
sg21
F1.0
sg22
F0.0
sg154
F1.0
ssS"still's disease"
p166
(dp167
S'Procedure'
p168
F1.0
ssS'bacteria'
p169
(dp170
S'Procedure'
p171
F1.0
sS'Drug'
p172
F1.0
ssS'depression'
p173
(dp174
S'Behavioral'
p175
F1.0
ssS'bullous systemic lupus erythematosus-Procedure'
p176
(dp177
sS'painful neuropathy-Drug'
p178
(dp179
S'sulfasalazine'
p180
F1.0
sg23
F0.0
sg16
F0.0
sg17
F0.0
sg42
F0.0
sg18
F0.0
sg19
F0.0
sg20
F0.0
sg43
F0.0
sg22
F0.0
ssS'neoplasms-Device'
p181
(dp182
g23
F0.0
sg16
F0.0
sg17
F0.0
sg42
F0.0
sg160
F1.0
sg18
F0.0
sg19
F0.0
sg20
F0.0
sg43
F0.0
sg22
F0.0
ssS'irritable bowel-Behavioral'
p183
(dp184
sS'irritable bowel syndrome'
p185
(dp186
S'Other'
p187
F0.2857142857142857
sS'Procedure'
p188
F0.14285714285714285
ssS'ulcerative colitis, active moderate-Biological'
p189
(dp190
g32
F0.5
sg37
F1.0
sg14
F0.5
sS'aminotransferase'
p191
F0.5
sg16
F0.5
sg36
F0.5
sg19
F0.5
sS'adalimumab'
p192
F0.5
sS'metronidazole'
p193
F0.5
sg154
F0.5
ssS'osteoporosis'
p194
(dp195
S'Behavioral'
p196
F1.0
ssS'colorectal cancer'
p197
(dp198
S'Device'
p199
F0.125
sS'Biological'
p200
F0.125
sS'Other'
p201
F0.125
sS'Procedure'
p202
F0.375
ssS'inflammatory bowel disease-Dietary Supplement'
p203
(dp204
S'phenytoin'
p205
F0.25
sg130
F0.25
sg37
F0.25
sg23
F0.0
sg16
F0.0
sS'phenobarbital'
p206
F0.25
sS'carbamazepine'
p207
F0.25
sS'fat'
p208
F0.25
sg22
F0.0
sS'p450'
p209
F0.25
ssS'enteropathic arthritis'
p210
(dp211
S'Biological'
p212
F1.0
sS'Drug'
p213
F1.0
ssS"sweet's syndrome"
p214
(dp215
S'Procedure'
p216
F1.0
ssS'rheumatoid neutrophilic dermatitis'
p217
(dp218
S'Procedure'
p219
F1.0
ssS'complex perianal fistula-Biological'
p220
(dp221
S'anesthetic'
p222
F1.0
sg23
F0.0
sg16
F0.0
sg17
F0.0
sg42
F0.0
sg18
F0.0
sg19
F0.0
sg20
F0.0
sg43
F0.0
sg22
F0.0
ssS'pathologic processes-Device'
p223
(dp224
g32
F1.0
sg23
F0.0
sg16
F0.0
sg92
F1.0
sg17
F0.0
sg18
F0.0
sg19
F0.0
sg20
F0.0
sg21
F1.0
sg22
F0.0
ssS'clostridium difficile-Biological'
p225
(dp226
g23
F0.0
sg16
F1.0
sg17
F0.0
sg42
F0.0
sg18
F0.0
sg19
F0.0
sg20
F0.0
sg43
F0.0
sg22
F0.0
sg38
F1.0
ssS'fecal incontinence'
p227
(dp228
S'Other'
p229
F1.0
ssS'aminosalicylic acid-Drug'
p230
(dp231
g23
F0.0
sg16
F0.0
sg153
F1.0
sg17
F0.0
sg42
F0.0
sg18
F0.0
sg19
F0.0
sg20
F0.0
sg43
F0.0
sg22
F0.0
ssS'bleeding-Drug'
p232
(dp233
sS'transient ischemic attacks-Behavioral'
p234
(dp235
sS'healthy'
p236
(dp237
S'Device'
p238
F0.3333333333333333
sS'Other'
p239
F0.6666666666666666
ssS'gastrointestinal stromal tumor-Procedure'
p240
(dp241
g41
F0.0
sg23
F0.0
sg16
F0.0
sg17
F0.0
sg42
F0.0
sg18
F0.0
sg19
F0.0
sg20
F0.0
sg43
F0.0
sg22
F0.0
ssS'psoriatic arthritis'
p242
(dp243
S'Biological'
p244
F0.4
sS'Procedure'
p245
F0.2
sS'Drug'
p246
F0.2
ssS'pediatric'
p247
(dp248
S'Drug'
p249
F1.0
ssS'hepatosplenic t-cell lymphoma-Biological'
p250
(dp251
sS'chronic bronchitis-Behavioral'
p252
(dp253
sS"still's disease-Procedure"
p254
(dp255
sS'non-metastatic neoplasm'
p256
(dp257
sS'pancreatitis'
p258
(dp259
S'Drug'
p260
F1.0
ssS'transient neonatal pustulosis-Procedure'
p261
(dp262
sS"wegener's granulomatosis-Drug"
p263
(dp264
g23
F0.0
sg16
F0.0
sg17
F0.0
sg53
F1.0
sg54
F1.0
sg19
F0.0
sg20
F0.0
sg43
F0.0
sg18
F0.0
sg22
F0.0
ssS'acute generalized exanthematous pustulosis-Procedure'
p265
(dp266
sS'fistula-Other'
p267
(dp268
g32
F1.0
sS'kineret'
p269
F1.0
sg37
F1.0
sg23
F0.0
sg16
F0.0
sg36
F1.0
sS'anakinra'
p270
F1.0
sg21
F1.0
sg22
F0.0
sS'6-mercaptopurine'
p271
F1.0
ssS'radiation enteritis'
p272
(dp273
sS'cardiovascular disease-Behavioral'
p274
(dp275
sS"takayasu's disease"
p276
(dp277
S'Drug'
p278
F1.0
ssS'hepatosplenic t-cell lymphoma'
p279
(dp280
S'Biological'
p281
F0.5
ssS"ulcerative colitis and crohn's disease-Drug"
p282
(dp283
g114
F1.0
sg16
F0.0
sg17
F0.0
sg42
F0.0
sg18
F0.0
sg19
F0.0
sg20
F0.0
sg43
F0.0
sg22
F0.0
sg23
F0.0
ssS'polyps'
p284
(dp285
S'Device'
p286
F1.0
ssS'psoriasis'
p287
(dp288
S'Biological'
p289
F0.14285714285714285
sS'Drug'
p290
F0.5714285714285714
ssS"crohn's disease-Procedure"
p291
(dp292
g133
F0.13333333333333333
sS'clopidogrel'
p293
F0.06666666666666667
sg34
F0.13333333333333333
sg15
F0.06666666666666667
sg16
F0.06666666666666667
sS'asc'
p294
F0.06666666666666667
sS'insulin'
p295
F0.06666666666666667
sg21
F0.06666666666666667
sg38
F0.06666666666666667
sg14
F0.06666666666666667
ssS'atrial fibrillation'
p296
(dp297
S'Drug'
p298
F1.0
ssS'unclassified periodic fever syndromes / autoinflammatory syndromes'
p299
(dp300
S'Procedure'
p301
F1.0
ssS'rheumatoid arthritis-Procedure'
p302
(dp303
g14
F1.0
sg15
F1.0
sg16
F0.0
sg17
F0.0
sg18
F0.0
sg19
F0.0
sg20
F0.0
sg21
F1.0
sg22
F0.0
sg23
F0.0
ssS'colon cancer'
p304
(dp305
sS'hiv reservoirs'
p306
(dp307
S'Other'
p308
F1.0
ssS'autoimmune disease-Drug'
p309
(dp310
g117
F1.0
sg118
F1.0
sg92
F1.0
sg119
F1.0
sg42
F1.0
sg21
F1.0
sg36
F1.0
sg120
F1.0
sg121
F1.0
sg112
F1.0
ssS'dermatitis herpetiformis'
p311
(dp312
S'Procedure'
p313
F1.0
ssS'polyps-Device'
p314
(dp315
g23
F0.0
sg16
F0.0
sg17
F0.0
sg42
F0.0
sg160
F1.0
sg18
F0.0
sg19
F0.0
sg20
F0.0
sg43
F0.0
sg22
F0.0
ssS'vitamin d deficiency-Drug'
p316
(dp317
g23
F0.0
sS'cholestyramine'
p318
F1.0
sg16
F0.0
sg17
F0.0
sg42
F0.0
sg18
F0.0
sg19
F0.0
sg20
F0.0
sg43
F0.0
sg22
F0.0
ssS'urinary tract problem-Behavioral'
p319
(dp320
sS'myositis-Other'
p321
(dp322
g23
F0.0
sg16
F0.0
sg17
F0.0
sg42
F0.0
sg53
F1.0
sg18
F0.0
sg19
F0.0
sg20
F0.0
sg43
F0.0
sg22
F0.0
ssS'ibs'
p323
(dp324
S'Other'
p325
F1.0
ssS'adiposity-Other'
p326
(dp327
g41
F0.0
sg23
F0.0
sg16
F0.0
sg17
F0.0
sg42
F0.0
sg18
F0.0
sg19
F0.0
sg20
F0.0
sg43
F0.0
sg22
F0.0
ssS'microbiota'
p328
(dp329
S'Procedure'
p330
F1.0
sS'Drug'
p331
F1.0
ssS'chronic graft versus host disease-Procedure'
p332
(dp333
g41
F0.0
sg23
F0.0
sg16
F0.0
sg17
F0.0
sg42
F0.0
sg18
F0.0
sg19
F0.0
sg20
F0.0
sg43
F0.0
sg22
F0.0
ssS'stroke'
p334
(dp335
S'Behavioral'
p336
F1.0
ssS'vasculitis-Other'
p337
(dp338
g23
F0.0
sg16
F0.0
sg17
F0.0
sg42
F0.0
sg53
F1.0
sg18
F0.0
sg19
F0.0
sg20
F0.0
sg43
F0.0
sg22
F0.0
ssS'intestine perforation'
p339
(dp340
S'Dietary Supplement'
p341
F1.0
ssS'hepatitis c'
p342
(dp343
sS'polyp of large intestine-Device'
p344
(dp345
g41
F0.0
sg23
F0.0
sg16
F0.0
sg17
F0.0
sg42
F0.0
sg18
F0.0
sg19
F0.0
sg20
F0.0
sg43
F0.0
sg22
F0.0
ssS'sneddon-wilkinson disease'
p346
(dp347
S'Procedure'
p348
F1.0
ssS'diverticular disease-Procedure'
p349
(dp350
g133
F0.5
sg205
F0.5
sS'haloperidol'
p351
F0.5
sS'primidone'
p352
F0.5
sg16
F0.5
sg159
F0.5
sg206
F0.5
sS'phenylbutazone'
p353
F0.5
sg160
F0.5
sg20
F0.5
ssS'primary sclerosing cholangitis-Drug'
p354
(dp355
g37
F1.0
sg23
F0.0
sg16
F0.0
sg17
F0.0
sg18
F0.0
sg19
F0.0
sg20
F0.0
sg43
F0.0
sg22
F0.0
sg38
F0.5
ssS'ischemic heart disease'
p356
(dp357
S'Drug'
p358
F1.0
ssS'neonatal sepsis'
p359
(dp360
sS'proctosigmoiditis'
p361
(dp362
S'Drug'
p363
F1.0
ssS'healthy controls-Other'
p364
(dp365
g41
F0.0
sg23
F0.0
sg16
F0.0
sg17
F0.0
sg42
F0.0
sg18
F0.0
sg19
F0.0
sg20
F0.0
sg43
F0.0
sg22
F0.0
ssS'psoriasis-Drug'
p366
(dp367
g14
F0.3333333333333333
sg53
F0.3333333333333333
sg16
F0.3333333333333333
sg23
F0.0
sg70
F0.3333333333333333
sg36
F0.3333333333333333
sg54
F0.3333333333333333
sg71
F0.3333333333333333
sg22
F0.0
sg69
F0.3333333333333333
ssS'microbiota-Procedure'
p368
(dp369
g157
F1.0
sg23
F0.0
sg16
F0.0
sg17
F0.0
sg42
F0.0
sg18
F0.0
sg19
F0.0
sg20
F0.0
sg43
F0.0
sg22
F0.0
ssS'systemic lupus erythematosus'
p370
(dp371
S'Drug'
p372
F1.0
ssS'colitis, ischemic-Procedure'
p373
(dp374
g41
F0.0
sg23
F0.0
sg16
F0.0
sg17
F0.0
sg42
F0.0
sg18
F0.0
sg19
F0.0
sg20
F0.0
sg43
F0.0
sg22
F0.0
ssS'other specified inflammatory disorders of skin or subcutaneous tissue-Procedure'
p375
(dp376
sS'arthritis'
p377
(dp378
S'Biological'
p379
F0.5
sS'Drug'
p380
F0.5
sS'Behavioral'
p381
F0.5
ssS'ulcerative colitis-Behavioral'
p382
(dp383
g37
F0.125
sg14
F0.25
sg34
F0.125
sg23
F0.0
sS'oxygen'
p384
F0.125
sS'start'
p385
F0.125
sg36
F0.125
sg69
F0.125
sg22
F0.0
sg38
F0.125
ssS'type 1 diabetes-Other'
p386
(dp387
g23
F0.0
sg16
F0.0
sg17
F0.0
sg42
F0.0
sg53
F1.0
sg18
F0.0
sg19
F0.0
sg20
F0.0
sg43
F0.0
sg22
F0.0
ssS'dietary modification-Other'
p388
(dp389
g37
F1.0
sg23
F0.0
sg16
F0.0
sg17
F0.0
sg42
F0.0
sg18
F0.0
sg19
F0.0
sg20
F0.0
sg43
F0.0
sg22
F0.0
ssS'pediatric-Drug'
p390
(dp391
g37
F1.0
sg23
F0.0
sg16
F0.0
sg17
F0.0
sg42
F0.0
sg18
F0.0
sg19
F0.0
sg20
F0.0
sg43
F0.0
sg22
F0.0
ssS'cardiovascular disease'
p392
(dp393
S'Behavioral'
p394
F1.0
ssS'collagenous colitis-Procedure'
p395
(dp396
g41
F0.0
sg23
F0.0
sg16
F0.0
sg17
F0.0
sg42
F0.0
sg18
F0.0
sg19
F0.0
sg20
F0.0
sg43
F0.0
sg22
F0.0
ssS'digestive system diseases-Drug'
p397
(dp398
S'diphenoxylate'
p399
F0.5
sg117
F0.5
sg118
F0.5
sg92
F0.5
sg119
F0.5
sg42
F0.5
sg120
F0.5
sg93
F1.0
sg43
F0.5
sg121
F0.5
ssS'colonic diseases-Procedure'
p400
(dp401
g133
F0.3333333333333333
sg205
F0.3333333333333333
sg351
F0.3333333333333333
sS'mc'
p402
F0.3333333333333333
sg16
F0.3333333333333333
sg159
F0.3333333333333333
sg353
F0.3333333333333333
sg160
F0.3333333333333333
sg20
F0.3333333333333333
sg38
F0.3333333333333333
ssS'gastrointestinal hemorrhage'
p403
(dp404
S'Other'
p405
F1.0
sS'Drug'
p406
F1.0
ssS'kidney calculi'
p407
(dp408
S'Dietary Supplement'
p409
F1.0
ssS'inflammatory bowel disease'
p410
(dp411
S'Drug'
p412
F0.20491803278688525
sS'Dietary Supplement'
p413
F0.03278688524590164
sS'Other'
p414
F0.18032786885245902
sS'Behavioral'
p415
F0.07377049180327869
sS'Device'
p416
F0.10655737704918032
sS'Biological'
p417
F0.07377049180327869
sS'Procedure'
p418
F0.10655737704918032
ssS'sleep-Behavioral'
p419
(dp420
g23
F0.0
sg16
F0.0
sg17
F0.0
sg42
F0.0
sg385
F1.0
sg18
F0.0
sg19
F0.0
sg20
F0.0
sg43
F0.0
sg22
F0.0
ssS'ulcerative colitis associated pouchitis-Procedure'
p421
(dp422
S'kind'
p423
F1.0
sg23
F0.0
sS'etanercept'
p424
F1.0
sg16
F0.0
sg17
F0.0
sg18
F0.0
sg19
F0.0
sg20
F0.0
sg43
F0.0
sg22
F0.0
ssS'intestinal diseases-Device'
p425
(dp426
g32
F1.0
sg23
F0.0
sg16
F0.0
sg92
F1.0
sg17
F0.0
sg18
F0.0
sg19
F0.0
sg20
F0.0
sg21
F1.0
sg22
F0.0
ssS'intestinal polyposis'
p427
(dp428
sS'anoperineal fistula-Procedure'
p429
(dp430
S'plug'
p431
F1.0
sg23
F0.0
sg16
F0.0
sg17
F0.0
sg42
F0.0
sg18
F0.0
sg19
F0.0
sg20
F0.0
sg43
F0.0
sg22
F0.0
ssS'pulmonary tuberculosis'
p432
(dp433
sS'mild to moderate ulcerative colitis'
p434
(dp435
S'Drug'
p436
F1.0
ssS'pancreatitis-Drug'
p437
(dp438
g23
F0.0
sg16
F1.0
sg17
F0.0
sg42
F0.0
sg18
F0.0
sg19
F0.0
sg20
F0.0
sg43
F0.0
sg22
F0.0
sg38
F1.0
ssS'anemia, iron-deficiency'
p439
(dp440
S'Drug'
p441
F1.0
ssS'dementia-Behavioral'
p442
(dp443
sS'cryopyrin-associated periodic syndromes /tnf-receptor associated periodic syndrome-Other'
p444
(dp445
g23
F0.0
sg16
F0.0
sg17
F0.0
sg42
F0.0
sg53
F1.0
sg18
F0.0
sg19
F0.0
sg20
F0.0
sg43
F0.0
sg22
F0.0
ssS'microbiota-Drug'
p446
(dp447
g157
F1.0
sg23
F0.0
sg16
F0.0
sg17
F0.0
sg42
F0.0
sg18
F0.0
sg19
F0.0
sg20
F0.0
sg43
F0.0
sg22
F0.0
ssS'diverticulosis-Behavioral'
p448
(dp449
sS'erythema elevatum diutinum'
p450
(dp451
S'Procedure'
p452
F1.0
ssS'immune-mediated inflammatory disease'
p453
(dp454
sS'triclosan effects on microbial flora.-Other'
p455
(dp456
g37
F1.0
sg23
F0.0
sg16
F0.0
sg17
F0.0
sg18
F0.0
sg19
F0.0
sg20
F0.0
sg43
F0.0
sg22
F0.0
sg38
F1.0
ssS'inflammatory bowel disease-Behavioral'
p457
(dp458
g23
F0.0
sg16
F0.0
sg17
F0.0
sg18
F0.1111111111111111
sg19
F0.0
sg20
F0.0
sg22
F0.0
sg38
F0.3333333333333333
sS'wellbutrin'
p459
F0.1111111111111111
sg14
F0.2222222222222222
ssS'triclosan effects on microbial flora.'
p460
(dp461
S'Other'
p462
F1.0
ssS'complex perianal fistula'
p463
(dp464
S'Biological'
p465
F1.0
ssS'linear iga bullous dermatosis-Procedure'
p466
(dp467
sS'blood clot'
p468
(dp469
sS'gastric cancer'
p470
(dp471
S'Device'
p472
F1.0
sS'Procedure'
p473
F1.0
ssS'rectal cancer'
p474
(dp475
S'Device'
p476
F0.25
sS'Drug'
p477
F0.25
sS'Procedure'
p478
F0.5
ssS'fecal microbiota transplantation-Drug'
p479
(dp480
g157
F1.0
sg23
F0.0
sg16
F0.0
sg17
F0.0
sg42
F0.0
sg18
F0.0
sg19
F0.0
sg20
F0.0
sg43
F0.0
sg22
F0.0
ssS'crohn\xe2\x80\x99s disease, obesity'
p481
(dp482
sS'ulcerative colitis-Biological'
p483
(dp484
g16
F0.21428571428571427
sg37
F0.07142857142857142
sg14
F0.14285714285714285
sg34
F0.14285714285714285
sg118
F0.07142857142857142
sS'pentasa'
p485
F0.07142857142857142
sg19
F0.07142857142857142
sg120
F0.07142857142857142
sg121
F0.07142857142857142
sg23
F0.07142857142857142
ssS'fistula'
p486
(dp487
S'Device'
p488
F0.3333333333333333
sS'Other'
p489
F0.3333333333333333
sS'Procedure'
p490
F0.6666666666666666
ssS'amyotrophic lateral sclerosis'
p491
(dp492
sS'colitis, ischemic'
p493
(dp494
S'Procedure'
p495
F1.0
ssS'immunoglobulin treatment'
p496
(dp497
sS"behcet's disease"
p498
(dp499
S'Drug'
p500
F0.5
sS'Procedure'
p501
F0.5
ssS'neutrophilic dermatosis of the dorsal hands (pustular vasculitis)'
p502
(dp503
S'Procedure'
p504
F1.0
ssS'irritable bowel'
p505
(dp506
S'Behavioral'
p507
F1.0
ssS'fatigue-Drug'
p508
(dp509
g14
F1.0
sg16
F0.0
sg17
F0.0
sg18
F1.0
sg19
F0.0
sg20
F0.0
sg43
F0.0
sg22
F0.0
sg459
F1.0
sg23
F0.0
ssS'arthritis-Biological'
p510
(dp511
g69
F1.0
sg16
F1.0
sg23
F0.0
sg17
F0.0
sg70
F1.0
sg18
F0.0
sg19
F0.0
sg71
F1.0
sg22
F0.0
sg14
F1.0
ssS'anxiety-Behavioral'
p512
(dp513
g14
F1.0
sg16
F0.0
sg17
F0.0
sg42
F0.0
sg18
F0.0
sg19
F0.0
sg20
F0.0
sg43
F0.0
sg22
F0.0
sg23
F0.0
ssS'heart failure'
p514
(dp515
S'Behavioral'
p516
F1.0
ssS'ulcerative colitis-Procedure'
p517
(dp518
g157
F0.08333333333333333
sg37
F0.08333333333333333
sg293
F0.08333333333333333
sg34
F0.08333333333333333
sS'metoclopramide'
p519
F0.08333333333333333
sg16
F0.16666666666666666
sS'solution'
p520
F0.08333333333333333
sS'phosphate'
p521
F0.08333333333333333
sS'bisacodyl'
p522
F0.08333333333333333
sg14
F0.08333333333333333
ssS"behcet's disease-Procedure"
p523
(dp524
sS'lymphocytic colitis'
p525
(dp526
S'Procedure'
p527
F1.0
ssS'infantile acropustulosis'
p528
(dp529
S'Procedure'
p530
F1.0
ssS"crohn's ileocolitis"
p531
(dp532
S'Drug'
p533
F1.0
ssS'gastric cancer-Procedure'
p534
(dp535
g41
F0.0
sg23
F0.0
sg16
F0.0
sg17
F0.0
sg42
F0.0
sg18
F0.0
sg19
F0.0
sg20
F0.0
sg43
F0.0
sg22
F0.0
ssS'chronic obstructive pulmonary disease (copd)-Behavioral'
p536
(dp537
sS'uveitis-Other'
p538
(dp539
g23
F0.0
sg16
F0.0
sg17
F0.0
sg42
F0.0
sg53
F1.0
sg18
F0.0
sg19
F0.0
sg20
F0.0
sg43
F0.0
sg22
F0.0
ssS"crohn's disease, active"
p540
(dp541
S'Other'
p542
F1.0
ssS'gastroesophageal reflux-Behavioral'
p543
(dp544
sS'polyp of large intestine'
p545
(dp546
S'Device'
p547
F1.0
ssS'gastrointestinal stromal tumor-Device'
p548
(dp549
g41
F0.0
sg23
F0.0
sg16
F0.0
sg17
F0.0
sg42
F0.0
sg18
F0.0
sg19
F0.0
sg20
F0.0
sg43
F0.0
sg22
F0.0
ssS'keratoderma blenorrhagicum'
p550
(dp551
S'Procedure'
p552
F1.0
ssS'cancer-Behavioral'
p553
(dp554
sS'benign colorectal neoplasm'
p555
(dp556
S'Procedure'
p557
F1.0
ssS'chronic inflammation'
p558
(dp559
S'Device'
p560
F1.0
ssS'indeterminate colitis-Drug'
p561
(dp562
g23
F0.0
sS'glycogen'
p563
F1.0
sg16
F0.0
sg17
F0.0
sg42
F0.0
sg18
F0.0
sg19
F0.0
sg20
F0.0
sg43
F0.0
sg22
F0.0
ssS'fatigue'
p564
(dp565
S'Other'
p566
F0.5
sS'Drug'
p567
F0.5
sS'Behavioral'
p568
F0.5
ssS'ileal pouch-anal anastomosis'
p569
(dp570
sS'common variable immunodeficiency'
p571
(dp572
sS'kidney calculi-Dietary Supplement'
p573
(dp574
g23
F0.0
sS'uterine'
p575
F1.0
sg16
F0.0
sg17
F0.0
sg42
F0.0
sg18
F0.0
sg19
F0.0
sg20
F0.0
sg43
F0.0
sg22
F0.0
ssS'quality of life-Behavioral'
p576
(dp577
g23
F0.0
sg16
F0.0
sg17
F0.0
sg42
F0.0
sg385
F1.0
sg18
F0.0
sg19
F0.0
sg20
F0.0
sg43
F0.0
sg22
F0.0
ssS'diverticulosis, colonic-Procedure'
p578
(dp579
Vanastomosis
p580
F1.0
sVrender
p581
F1.0
sVcivil
p582
F1.0
sVcardiopulmonary
p583
F1.0
sVaccept
p584
F1.0
sVobstruction
p585
F1.0
sVunsuitable
p586
F1.0
sVcolon
p587
F1.0
sVdetermine
p588
F1.0
sVneed
p589
F1.0
ssS'indeterminate colitis-Biological'
p590
(dp591
g23
F0.0
sg563
F1.0
sg16
F0.0
sg17
F0.0
sg42
F0.0
sg18
F0.0
sg19
F0.0
sg20
F0.0
sg43
F0.0
sg22
F0.0
ssS'neurodegenerative diseases'
p592
(dp593
sS'axial spondyloarthritis (axspa)-Procedure'
p594
(dp595
g14
F1.0
sg15
F1.0
sg16
F0.0
sg17
F0.0
sg18
F0.0
sg19
F0.0
sg20
F0.0
sg21
F1.0
sg22
F0.0
sg23
F0.0
ssS'system'
p596
(dp597
g4
F0.004395604395604396
sS'non-ibd colitis'
p598
F0.002197802197802198
sg346
F0.002197802197802198
sg427
F0.002197802197802198
sS'motor activity'
p599
F0.002197802197802198
sS'idiopathic chronic inflammatory bowel disease'
p600
F0.002197802197802198
sg432
F0.002197802197802198
sg24
F0.002197802197802198
sg27
F0.002197802197802198
sg299
F0.002197802197802198
sg161
F0.002197802197802198
sS'colorectal polyps'
p601
F0.002197802197802198
sS'short bowel syndrome'
p602
F0.002197802197802198
sg48
F0.002197802197802198
sS'intestinal tuberculosis'
p603
F0.004395604395604396
sg55
F0.002197802197802198
sS'asthma'
p604
F0.002197802197802198
sg58
F0.002197802197802198
sg61
F0.004395604395604396
sg64
F0.002197802197802198
sg453
F0.002197802197802198
sS'chronic obstructive pulmonary disease (copd)'
p605
F0.002197802197802198
sg75
F0.002197802197802198
sg77
F0.002197802197802198
sS'portal vein thrombosis'
p606
F0.002197802197802198
sS'systemic lupus erythematosus/antiphospholipid syndrome'
p607
F0.002197802197802198
sg81
F0.002197802197802198
sg83
F0.002197802197802198
sg463
F0.002197802197802198
sg86
F0.002197802197802198
sS'hiv'
p608
F0.002197802197802198
sS'other specified inflammatory disorders of skin or subcutaneous tissue'
p609
F0.002197802197802198
sg468
F0.002197802197802198
sS'urinary tract problem'
p610
F0.002197802197802198
sg470
F0.002197802197802198
sg407
F0.002197802197802198
sS'tuberculosis'
p611
F0.002197802197802198
sS"wegener's granulomatosis"
p612
F0.002197802197802198
sg103
F0.002197802197802198
sS'lymphoma'
p613
F0.002197802197802198
sg525
F0.002197802197802198
sg474
F0.008791208791208791
sg105
F0.002197802197802198
sS'hirschsprung disease'
p614
F0.002197802197802198
sS'left-sided ulcerative colitis'
p615
F0.002197802197802198
sS'multiple sclerosis'
p616
F0.002197802197802198
sS'bowel diseases, inflammatory'
p617
F0.002197802197802198
sg122
F0.002197802197802198
sS'granulomatous disease'
p618
F0.002197802197802198
sS'surgical site infection'
p619
F0.002197802197802198
sS'inflammatory epidermolysis bullosa aquisita'
p620
F0.002197802197802198
sS'autoimmune hepatitis'
p621
F0.002197802197802198
sg334
F0.002197802197802198
sg370
F0.002197802197802198
sS'clostridium difficile colitis'
p622
F0.002197802197802198
sS'anoperineal fistula'
p623
F0.002197802197802198
sS'rectal prolapse'
p624
F0.002197802197802198
sS'malnutrition'
p625
F0.002197802197802198
sg460
F0.002197802197802198
sS'schnitzler syndrome'
p626
F0.002197802197802198
sS'uveitis'
p627
F0.002197802197802198
sg134
F0.002197802197802198
sS'plaque psoriasis'
p628
F0.002197802197802198
sS'colorectal neoplasms'
p629
F0.008791208791208791
sS'postoperative disease recurrence'
p630
F0.002197802197802198
sS'gastrointestinal diseases'
p631
F0.006593406593406593
sS'korea'
p632
F0.002197802197802198
sg143
F0.002197802197802198
sg486
F0.008791208791208791
sg491
F0.002197802197802198
sS'ulcerative colitis, active'
p633
F0.002197802197802198
sg496
F0.002197802197802198
sg498
F0.004395604395604396
sS'indeterminate colitis'
p634
F0.006593406593406593
sg505
F0.002197802197802198
sg166
F0.002197802197802198
sS'acute lymphoblastic leukemia (all)'
p635
F0.002197802197802198
sS'stem cell transplantation'
p636
F0.002197802197802198
sS'gastroparesis'
p637
F0.002197802197802198
sg169
F0.002197802197802198
sg173
F0.006593406593406593
sS'adenomatous polyposis coli'
p638
F0.002197802197802198
sS'complications of surgical procedures'
p639
F0.002197802197802198
sS'exacerbation of ulcerative colitis'
p640
F0.002197802197802198
sg514
F0.002197802197802198
sS"perianal crohn's disease"
p641
F0.002197802197802198
sg227
F0.002197802197802198
sg185
F0.015384615384615385
sS'quality of life'
p642
F0.002197802197802198
sS'oral ulcer'
p643
F0.002197802197802198
sS'haematopoietic stem cell transplantation'
p644
F0.002197802197802198
sg528
F0.002197802197802198
sg531
F0.002197802197802198
sg140
F0.002197802197802198
sS'erosive pustular dermatosis of the scalp'
p645
F0.002197802197802198
sS'transient neonatal pustulosis'
p646
F0.002197802197802198
sS'intestinal volvulus'
p647
F0.002197802197802198
sg439
F0.002197802197802198
sS'ankylosing spondylitis'
p648
F0.01978021978021978
sg197
F0.017582417582417582
sS'constipation (excl faecal impaction)'
p649
F0.002197802197802198
sS'acute generalized exanthematous pustulosis'
p650
F0.002197802197802198
sg210
F0.002197802197802198
sS'dietary modification'
p651
F0.002197802197802198
sg214
F0.002197802197802198
sg217
F0.002197802197802198
sS'epidemiology'
p652
F0.002197802197802198
sS'ulcerative colitis associated pouchitis'
p653
F0.002197802197802198
sg256
F0.002197802197802198
sS'diverticulitis'
p654
F0.006593406593406593
sS'iron deficiency anemia (ida) secondary to inflammatory bowel disease (ibd) or gastric bypass'
p655
F0.002197802197802198
sg545
F0.002197802197802198
sS'microrna profile'
p656
F0.002197802197802198
sg550
F0.002197802197802198
sS'neutrophilic urticaria'
p657
F0.002197802197802198
sS'ileostomy - stoma'
p658
F0.002197802197802198
sg323
F0.002197802197802198
sg555
F0.002197802197802198
sg236
F0.006593406593406593
sS'short bowel syndrome (sbs)'
p659
F0.002197802197802198
sg284
F0.002197802197802198
sg361
F0.002197802197802198
sS'chronic diarrhea'
p660
F0.006593406593406593
sS'medium vessel vasculitis'
p661
F0.002197802197802198
sg481
F0.002197802197802198
sg148
F0.002197802197802198
sg569
F0.002197802197802198
sg571
F0.002197802197802198
sg450
F0.002197802197802198
sS'cancer'
p662
F0.004395604395604396
sS'neoplasms'
p663
F0.002197802197802198
sS'dementia'
p664
F0.002197802197802198
sS'pustular psoriasis'
p665
F0.002197802197802198
sS'abscess'
p666
F0.002197802197802198
sS'enterocolitis'
p667
F0.002197802197802198
sS'erythema marginatum'
p668
F0.002197802197802198
sS'diabetes'
p669
F0.002197802197802198
sS'diverticulosis'
p670
F0.002197802197802198
sS"ulcerative colitis and crohn's disease"
p671
F0.002197802197802198
sg272
F0.002197802197802198
sS'dehydration, diverting ileostomy, loperamide'
p672
F0.002197802197802198
sg558
F0.002197802197802198
sg72
F0.002197802197802198
sS'bronchiectasis'
p673
F0.002197802197802198
sS'gastrointestinal bleeding'
p674
F0.002197802197802198
sS'transition from pediatric to adult care.'
p675
F0.002197802197802198
sS'diverticulum, colon'
p676
F0.002197802197802198
sg279
F0.004395604395604396
sS'healthy volunteer'
p677
F0.002197802197802198
sS'peritoneal carcinomatosis with intestinal occlusion'
p678
F0.002197802197802198
sS'adiposity'
p679
F0.002197802197802198
sS'inflammatory disease'
p680
F0.002197802197802198
sS'abdominal pain'
p681
F0.004395604395604396
sS'fmf'
p682
F0.002197802197802198
sS'linear iga bullous dermatosis'
p683
F0.002197802197802198
sS'type 1 diabetes'
p684
F0.002197802197802198
sS'rectal bloodloss'
p685
F0.002197802197802198
sS"alzheimer's disease"
p686
F0.002197802197802198
sS'clostridium difficile'
p687
F0.004395604395604396
sg287
F0.015384615384615385
sS'bowel-associated dermatosis-arthritis syndrome'
p688
F0.002197802197802198
sS'myositis'
p689
F0.002197802197802198
sS'perianal fistula'
p690
F0.002197802197802198
sS'vasculitis'
p691
F0.002197802197802198
sg339
F0.002197802197802198
sg296
F0.002197802197802198
sS'nonalcoholic fatty liver disease (nafld)'
p692
F0.002197802197802198
sS'children with a deficiency of alpha-1 antitrypsin'
p693
F0.002197802197802198
sS'cytomegalovirus infections'
p694
F0.002197802197802198
sS'vitamin d deficiency'
p695
F0.004395604395604396
sg306
F0.002197802197802198
sg592
F0.002197802197802198
sS'iga pemphigus'
p696
F0.002197802197802198
sS'parkinson disease'
p697
F0.002197802197802198
sS'all diagnosed health conditions'
p698
F0.002197802197802198
sS'kidney disease'
p699
F0.002197802197802198
sg311
F0.002197802197802198
sS'colitis'
p700
F0.004395604395604396
sS'ulcerative colitis'
p701
F0.3934065934065934
sS'anxiety'
p702
F0.004395604395604396
sS'thyroid disorder'
p703
F0.002197802197802198
sS'enteritis'
p704
F0.002197802197802198
sS'intestinal lymphomas'
p705
F0.002197802197802198
sS'pathologic processes'
p706
F0.002197802197802198
sS'chronic graft versus host disease'
p707
F0.002197802197802198
sS'hyperlipidemia'
p708
F0.002197802197802198
sS'colonic diseases'
p709
F0.008791208791208791
sg359
F0.002197802197802198
sS'reservoir, ileoanal'
p710
F0.002197802197802198
sg194
F0.002197802197802198
sS'clostridium difficile infection (cdi)'
p711
F0.002197802197802198
sg502
F0.002197802197802198
sS'disease exacerbation'
p712
F0.002197802197802198
sS'necrotizing enterocolitis (nec)'
p713
F0.002197802197802198
sS'fecal microbiota transplantation'
p714
F0.002197802197802198
sg328
F0.002197802197802198
sS'multimorbidity'
p715
F0.002197802197802198
sS'intestinal diseases'
p716
F0.008791208791208791
sS'chronic arthritis'
p717
F0.002197802197802198
sS'diabetic retinopathy'
p718
F0.002197802197802198
sg540
F0.002197802197802198
sS'ulcerative colitis, active moderate'
p719
F0.004395604395604396
sS'sleep disturbance'
p720
F0.004395604395604396
sS'graft versus host disease'
p721
F0.006593406593406593
sg342
F0.002197802197802198
sS'patients undergoing routine health care'
p722
F0.002197802197802198
sg146
F0.002197802197802198
sg242
F0.01098901098901099
sS'diverticular disease'
p723
F0.004395604395604396
sS"crohn's disease, remission (6a: with ibs symptoms, 6b: without ibs symptoms)"
p724
F0.002197802197802198
sS'colostomy'
p725
F0.002197802197802198
sS'infections, pneumococcal'
p726
F0.002197802197802198
sS'digestive system diseases'
p727
F0.004395604395604396
sS'enterocolitis, necrotizing'
p728
F0.002197802197802198
sS'metabolomic profile'
p729
F0.002197802197802198
sS'pyoderma gangrenosum'
p730
F0.002197802197802198
sg258
F0.002197802197802198
sS'autoimmune disease'
p731
F0.004395604395604396
sS'colitis, ulcerative'
p732
F0.002197802197802198
sg356
F0.002197802197802198
sS'gastroesophageal reflux'
p733
F0.002197802197802198
sg96
F0.024175824175824177
sS'insulin resistance'
p734
F0.002197802197802198
sS'primary sclerosing cholangitis'
p735
F0.008791208791208791
sS'colon polyps'
p736
F0.002197802197802198
sS'transient ischemic attacks'
p737
F0.002197802197802198
sS'stenosis'
p738
F0.002197802197802198
sS'cryopyrin-associated periodic syndromes /tnf-receptor associated periodic syndrome'
p739
F0.002197802197802198
sS'hepatitis b, chronic'
p740
F0.002197802197802198
sS'chronic fatigue'
p741
F0.002197802197802198
sS'chronic hepatitis'
p742
F0.002197802197802198
sg247
F0.002197802197802198
sg276
F0.002197802197802198
sS'musculoskeletal pain'
p743
F0.002197802197802198
sg377
F0.004395604395604396
sS'painful neuropathy'
p744
F0.002197802197802198
sS'non-radiographic evidence-axspa'
p745
F0.002197802197802198
sS'bullous systemic lupus erythematosus'
p746
F0.002197802197802198
sg564
F0.004395604395604396
sg392
F0.002197802197802198
sS'small vessel vasculitis including urticarial vasculitis'
p747
F0.002197802197802198
sS'hypertension'
p748
F0.002197802197802198
sg304
F0.002197802197802198
sS"moderate to severe crohn's disease"
p749
F0.002197802197802198
sS'gastrointestinal stromal tumor'
p750
F0.002197802197802198
sS'chronic granulomatous disease (cgd)'
p751
F0.002197802197802198
sS'severe malnutrition'
p752
F0.002197802197802198
sS'healthy volunteer, ulcerative colitis'
p753
F0.002197802197802198
sS'chronic bronchitis'
p754
F0.002197802197802198
sS'methicillin-resistant staphylococcus aureus'
p755
F0.002197802197802198
sS"crohn's disease"
p756
F0.45054945054945056
sg403
F0.002197802197802198
sS'thrombosis'
p757
F0.002197802197802198
sS'prematurity'
p758
F0.002197802197802198
sg434
F0.002197802197802198
sg493
F0.002197802197802198
sg410
F0.2703296703296703
sS'neutrophilic eccrine hidradenitis'
p759
F0.002197802197802198
sS'liver cirrhosis'
p760
F0.002197802197802198
sS"pediatric crohn's disease"
p761
F0.002197802197802198
sS'endometriosis'
p762
F0.002197802197802198
sS'axial spondyloarthritis (axspa)'
p763
F0.002197802197802198
sS'diverticulosis, colonic'
p764
F0.002197802197802198
ssS'ulcerative colitis-Other'
p765
(dp766
g32
F0.06451612903225806
sg37
F0.12903225806451613
sg14
F0.06451612903225806
sg53
F0.06451612903225806
sg112
F0.0967741935483871
sg16
F0.0967741935483871
sg42
F0.0967741935483871
sg36
F0.06451612903225806
sg38
F0.06451612903225806
sg114
F0.12903225806451613
ssg682
(dp767
S'Other'
p768
F1.0
ssS'gastrointestinal diseases-Device'
p769
(dp770
g32
F1.0
sg23
F0.0
sg16
F0.0
sg92
F1.0
sg17
F0.0
sg18
F0.0
sg19
F0.0
sg20
F0.0
sg21
F1.0
sg22
F0.0
ssg685
(dp771
sg686
(dp772
S'Behavioral'
p773
F1.0
ssg668
(dp774
S'Procedure'
p775
F1.0
ssS'metabolomic profile-Other'
p776
(dp777
g41
F0.0
sg23
F0.0
sg16
F0.0
sg17
F0.0
sg42
F0.0
sg18
F0.0
sg19
F0.0
sg20
F0.0
sg43
F0.0
sg22
F0.0
ssg694
(dp778
sS'hiv-Behavioral'
p779
(dp780
sg696
(dp781
S'Procedure'
p782
F1.0
ssg698
(dp783
sg700
(dp784
S'Drug'
p785
F0.5
ssS'macular degeneration-Drug'
p786
(dp787
S'opacity'
p788
F1.0
sg23
F0.0
sS'aluminum'
p789
F1.0
sS'fluorescein'
p790
F1.0
sg16
F1.0
sg17
F0.0
sg18
F0.0
sg19
F0.0
sg20
F0.0
sg22
F0.0
ssg701
(dp791
S'Drug'
p792
F0.39325842696629215
sS'Dietary Supplement'
p793
F0.06741573033707865
sS'Other'
p794
F0.1797752808988764
sS'Behavioral'
p795
F0.05056179775280899
sS'Device'
p796
F0.08426966292134831
sS'Biological'
p797
F0.07865168539325842
sS'Procedure'
p798
F0.06741573033707865
ssS'iron deficiency anemia-Drug'
p799
(dp800
g23
F0.0
sg16
F0.0
sg17
F0.0
sg18
F0.0
sg19
F0.0
sS'iron'
p801
F0.5
sg20
F0.0
sg43
F0.0
sg22
F0.0
sg154
F0.5
ssS'constipation (excl faecal impaction)-Biological'
p802
(dp803
g41
F0.0
sg23
F0.0
sg16
F0.0
sg17
F0.0
sg42
F0.0
sg18
F0.0
sg19
F0.0
sg20
F0.0
sg43
F0.0
sg22
F0.0
ssS'indeterminate colitis-Behavioral'
p804
(dp805
g41
F0.0
sg23
F0.0
sg16
F0.0
sg17
F0.0
sg42
F0.0
sg18
F0.0
sg19
F0.0
sg20
F0.0
sg43
F0.0
sg22
F0.0
ssg705
(dp806
sg707
(dp807
S'Procedure'
p808
F1.0
ssg708
(dp809
S'Behavioral'
p810
F1.0
ssg709
(dp811
S'Device'
p812
F0.25
sS'Drug'
p813
F0.25
sS'Procedure'
p814
F0.75
ssg710
(dp815
sS'colorectal neoplasms-Device'
p816
(dp817
g41
F0.0
sg23
F0.0
sg16
F0.0
sg17
F0.0
sg42
F0.0
sg18
F0.0
sg19
F0.0
sg20
F0.0
sg43
F0.0
sg22
F0.0
ssS'hiv reservoirs-Other'
p818
(dp819
g41
F0.0
sg23
F0.0
sg16
F0.0
sg17
F0.0
sg42
F0.0
sg18
F0.0
sg19
F0.0
sg20
F0.0
sg43
F0.0
sg22
F0.0
ssg712
(dp820
sS'complications of surgical procedures-Device'
p821
(dp822
g41
F0.0
sg23
F0.0
sg16
F0.0
sg17
F0.0
sg42
F0.0
sg18
F0.0
sg19
F0.0
sg20
F0.0
sg43
F0.0
sg22
F0.0
ssg689
(dp823
S'Other'
p824
F1.0
ssS'ibs-Other'
p825
(dp826
g41
F0.0
sg23
F0.0
sg16
F0.0
sg17
F0.0
sg42
F0.0
sg18
F0.0
sg19
F0.0
sg20
F0.0
sg43
F0.0
sg22
F0.0
ssg719
(dp827
S'Biological'
p828
F1.0
ssS'hyperlipidemia-Behavioral'
p829
(dp830
sg722
(dp831
sS'multimorbidity-Behavioral'
p832
(dp833
sg664
(dp834
S'Behavioral'
p835
F1.0
ssg635
(dp836
S'Drug'
p837
F1.0
ssS'healthy volunteer, ulcerative colitis-Drug'
p838
(dp839
g23
F0.0
sg16
F0.0
sg17
F0.0
sg42
F0.0
sg36
F1.0
sg18
F0.0
sg19
F0.0
sg20
F0.0
sg43
F0.0
sg22
F0.0
ssg726
(dp840
S'Biological'
p841
F1.0
ssg636
(dp842
S'Drug'
p843
F1.0
ssg751
(dp844
sS'osteoporosis-Behavioral'
p845
(dp846
sg731
(dp847
S'Drug'
p848
F0.5
ssS'psoriatic arthritis-Drug'
p849
(dp850
g69
F1.0
sg16
F1.0
sg23
F0.0
sg17
F0.0
sg70
F1.0
sg18
F0.0
sg19
F0.0
sg71
F1.0
sg22
F0.0
sg14
F1.0
ssS'enteropathic arthritis-Drug'
p851
(dp852
g69
F1.0
sg16
F1.0
sg23
F0.0
sg17
F0.0
sg70
F1.0
sg18
F0.0
sg19
F0.0
sg71
F1.0
sg22
F0.0
sg14
F1.0
ssS'keratoderma blenorrhagicum-Procedure'
p853
(dp854
sS'chronic fatigue-Drug'
p855
(dp856
g23
F0.0
sg16
F0.0
sg17
F0.0
sg42
F0.0
sg53
F1.0
sg18
F0.0
sg19
F0.0
sg20
F0.0
sg43
F0.0
sg22
F0.0
ssS'pyoderma gangrenosum-Procedure'
p857
(dp858
sg738
(dp859
S'Device'
p860
F1.0
ssg739
(dp861
S'Other'
p862
F1.0
ssg741
(dp863
S'Drug'
p864
F1.0
ssg638
(dp865
sS'severe malnutrition-Other'
p866
(dp867
g41
F0.0
sg23
F0.0
sg16
F0.0
sg17
F0.0
sg42
F0.0
sg18
F0.0
sg19
F0.0
sg20
F0.0
sg43
F0.0
sg22
F0.0
ssg642
(dp868
S'Behavioral'
p869
F1.0
ssS"alzheimer's disease-Behavioral"
p870
(dp871
sg732
(dp872
sg754
(dp873
S'Behavioral'
p874
F1.0
ssS'rheumatoid arthritis-Drug'
p875
(dp876
g14
F0.5
sg16
F0.5
sg23
F0.0
sg17
F0.0
sg70
F0.5
sg53
F0.5
sg54
F0.5
sg71
F0.5
sg22
F0.0
sg69
F0.5
ssS'autoimmune hepatitis-Drug'
p877
(dp878
g23
F0.0
sg16
F0.0
sg17
F0.0
sg53
F1.0
sg54
F1.0
sg19
F0.0
sg20
F0.0
sg43
F0.0
sg18
F0.0
sg22
F0.0
ssS'stem cell transplantation-Drug'
p879
(dp880
sS'rectal cancer-Procedure'
p881
(dp882
g205
F0.5
sg351
F0.5
sg352
F0.5
sg16
F0.5
sS'warfarin'
p883
F0.5
sg159
F0.5
sg206
F0.5
sg353
F0.5
sg160
F0.5
sg20
F0.5
ssg758
(dp884
S'Dietary Supplement'
p885
F1.0
ssS'motor activity-Behavioral'
p886
(dp887
g23
F0.0
sg16
F0.0
sg17
F0.0
sg42
F0.0
sg385
F1.0
sg18
F0.0
sg19
F0.0
sg20
F0.0
sg43
F0.0
sg22
F0.0
ssg714
(dp888
S'Procedure'
p889
F1.0
sS'Drug'
p890
F1.0
ssS'rheumatoid arthritis-Behavioral'
p891
(dp892
sg759
(dp893
S'Procedure'
p894
F1.0
ssg647
(dp895
sS'microrna profile-Other'
p896
(dp897
g41
F0.0
sg23
F0.0
sg16
F0.0
sg17
F0.0
sg42
F0.0
sg18
F0.0
sg19
F0.0
sg20
F0.0
sg43
F0.0
sg22
F0.0
ssS'sleep disturbance-Behavioral'
p898
(dp899
g14
F1.0
sg16
F0.0
sg17
F0.0
sg18
F1.0
sg19
F0.0
sg20
F0.0
sg43
F0.0
sg22
F0.0
sg459
F1.0
sg23
F0.0
ssS'rectal cancer-Drug'
p900
(dp901
g41
F0.0
sg23
F0.0
sg16
F0.0
sg17
F0.0
sg42
F0.0
sg18
F0.0
sg19
F0.0
sg20
F0.0
sg43
F0.0
sg22
F0.0
ssS'healthy-Device'
p902
(dp903
g41
F0.0
sg23
F0.0
sg16
F0.0
sg17
F0.0
sg42
F0.0
sg18
F0.0
sg19
F0.0
sg20
F0.0
sg43
F0.0
sg22
F0.0
ssS'depression-Behavioral'
p904
(dp905
g14
F0.5
sg16
F0.0
sg17
F0.0
sg385
F0.5
sg18
F0.0
sg19
F0.0
sg20
F0.0
sg43
F0.0
sg22
F0.0
sg23
F0.0
ssg661
(dp906
S'Procedure'
p907
F1.0
ssg602
(dp908
S'Drug'
p909
F1.0
ssg603
(dp910
sS'malnutrition-Other'
p911
(dp912
g14
F1.0
sg16
F0.0
sg17
F0.0
sg42
F0.0
sg18
F0.0
sg19
F0.0
sg20
F0.0
sg43
F0.0
sg22
F0.0
sg23
F0.0
ssS'sclerosing cholangitis-Drug'
p913
(dp914
g23
F0.0
sg16
F0.0
sg17
F0.0
sg53
F1.0
sg54
F1.0
sg19
F0.0
sg20
F0.0
sg43
F0.0
sg18
F0.0
sg22
F0.0
ssS'erythema marginatum-Procedure'
p915
(dp916
sg599
(dp917
S'Behavioral'
p918
F1.0
ssS'severe malnutrition-Dietary Supplement'
p919
(dp920
g41
F0.0
sg23
F0.0
sg16
F0.0
sg17
F0.0
sg42
F0.0
sg18
F0.0
sg19
F0.0
sg20
F0.0
sg43
F0.0
sg22
F0.0
ssS'methicillin-resistant staphylococcus aureus-Other'
p921
(dp922
g41
F0.0
sg23
F0.0
sg16
F0.0
sg17
F0.0
sg42
F0.0
sg18
F0.0
sg19
F0.0
sg20
F0.0
sg43
F0.0
sg22
F0.0
ssS'gastrointestinal hemorrhage-Other'
p923
(dp924
g41
F0.0
sg23
F0.0
sg16
F0.0
sg17
F0.0
sg42
F0.0
sg18
F0.0
sg19
F0.0
sg20
F0.0
sg43
F0.0
sg22
F0.0
ssg711
(dp925
S'Drug'
p926
F1.0
ssS'dehydration, diverting ileostomy, loperamide-Drug'
p927
(dp928
g23
F0.0
sg16
F0.0
sg17
F0.0
sg42
F0.0
sg160
F1.0
sg18
F0.0
sg19
F0.0
sg20
F0.0
sg43
F0.0
sg22
F0.0
ssg608
(dp929
S'Behavioral'
p930
F1.0
ssS'non-radiographic evidence-axspa-Biological'
p931
(dp932
g14
F1.0
sg15
F1.0
sg16
F0.0
sg17
F0.0
sg18
F0.0
sg19
F0.0
sg20
F0.0
sg21
F1.0
sg22
F0.0
sg23
F0.0
ssS'ulcerative colitis associated pouchitis-Biological'
p933
(dp934
g423
F1.0
sg23
F0.0
sg424
F1.0
sg16
F0.0
sg17
F0.0
sg18
F0.0
sg19
F0.0
sg20
F0.0
sg43
F0.0
sg22
F0.0
ssg702
(dp935
S'Behavioral'
p936
F1.0
ssg611
(dp937
sg612
(dp938
S'Drug'
p939
F1.0
ssg614
(dp940
sS'acute lymphoblastic leukemia (all)-Drug'
p941
(dp942
g41
F0.0
sg23
F0.0
sg16
F1.0
sg17
F0.0
sg42
F0.0
sg18
F0.0
sg19
F0.0
sg20
F0.0
sg43
F0.0
sg22
F0.0
ssg621
(dp943
S'Drug'
p944
F1.0
ssS"crohn's disease-Behavioral"
p945
(dp946
g14
F0.14285714285714285
sg16
F0.0
sg23
F0.0
sg17
F0.0
sg385
F0.14285714285714285
sg160
F0.14285714285714285
sg36
F0.14285714285714285
sg18
F0.0
sg22
F0.0
sg38
F0.14285714285714285
ssg623
(dp947
S'Procedure'
p948
F1.0
ssg624
(dp949
sg626
(dp950
sg627
(dp951
S'Other'
p952
F1.0
ssg631
(dp953
S'Device'
p954
F0.3333333333333333
sS'Drug'
p955
F0.6666666666666666
ssg681
(dp956
S'Drug'
p957
F0.5
ssg632
(dp958
sS'mild to moderate ulcerative colitis-Drug'
p959
(dp960
g152
F1.0
sg158
F1.0
sg14
F1.0
sS'screen'
p961
F1.0
sg16
F0.0
sg17
F0.0
sg18
F0.0
sg120
F1.0
sg22
F0.0
sg23
F0.0
ssS'enteritis-Dietary Supplement'
p962
(dp963
g41
F0.0
sg23
F0.0
sg16
F0.0
sg17
F0.0
sg42
F0.0
sg18
F0.0
sg19
F0.0
sg20
F0.0
sg43
F0.0
sg22
F0.0
ssg640
(dp964
S'Drug'
p965
F1.0
ssS'rheumatoid arthritis-Other'
p966
(dp967
g37
F0.5
sg23
F0.0
sg16
F0.0
sg17
F0.0
sg53
F0.5
sg18
F0.0
sg19
F0.0
sg20
F0.0
sg43
F0.0
sg22
F0.0
ssg641
(dp968
S'Drug'
p969
F1.0
ssS'rheumatoid arthritis-Biological'
p970
(dp971
g14
F1.0
sg15
F0.5
sg16
F0.5
sg23
F0.0
sg17
F0.0
sg70
F0.5
sg71
F0.5
sg21
F0.5
sg22
F0.0
sg69
F0.5
ssS"crohn's disease-Drug"
p972
(dp973
g14
F0.08333333333333333
sg34
F0.09722222222222222
sg16
F0.1388888888888889
sg92
F0.1527777777777778
sg113
F0.1388888888888889
sg36
F0.1388888888888889
sg93
F0.20833333333333334
sg192
F0.08333333333333333
sg21
F0.125
sg114
F0.08333333333333333
ssS'anemia, iron-deficiency-Drug'
p974
(dp975
g23
F0.0
sg16
F1.0
sg17
F0.0
sg42
F0.0
sg18
F0.0
sg19
F0.0
sg801
F1.0
sg20
F0.0
sg43
F0.0
sg22
F0.0
ssg643
(dp976
S'Drug'
p977
F1.0
ssS'heart failure-Behavioral'
p978
(dp979
sS'rheumatoid neutrophilic dermatitis-Procedure'
p980
(dp981
sS'systemic lupus erythematosus/antiphospholipid syndrome-Other'
p982
(dp983
g23
F0.0
sg16
F0.0
sg17
F0.0
sg42
F0.0
sg53
F1.0
sg18
F0.0
sg19
F0.0
sg20
F0.0
sg43
F0.0
sg22
F0.0
ssg761
(dp984
sg645
(dp985
S'Procedure'
p986
F1.0
ssg646
(dp987
S'Procedure'
p988
F1.0
ssS'insulin resistance-Other'
p989
(dp990
g41
F0.0
sg23
F0.0
sg16
F0.0
sg17
F0.0
sg42
F0.0
sg18
F0.0
sg19
F0.0
sg20
F0.0
sg43
F0.0
sg22
F0.0
ssS'recurrence-Procedure'
p991
(dp992
g41
F0.0
sg23
F0.0
sg16
F0.0
sg17
F0.0
sg42
F0.0
sg18
F0.0
sg19
F0.0
sg20
F0.0
sg43
F0.0
sg22
F0.0
ssg648
(dp993
S'Biological'
p994
F0.2222222222222222
sS'Other'
p995
F0.1111111111111111
sS'Procedure'
p996
F0.2222222222222222
sS'Drug'
p997
F0.3333333333333333
ssg764
(dp998
S'Procedure'
p999
F1.0
ssg649
(dp1000
S'Biological'
p1001
F1.0
ssg651
(dp1002
S'Other'
p1003
F1.0
ssS'ankylosing spondylitis-Drug'
p1004
(dp1005
g14
F0.5
sg16
F0.5
sg23
F0.0
sg17
F0.0
sg70
F0.5
sg53
F0.5
sg54
F0.5
sg71
F0.5
sg22
F0.0
sg69
F0.5
ssg687
(dp1006
S'Biological'
p1007
F0.5
sS'Other'
p1008
F0.5
ssg653
(dp1009
S'Biological'
p1010
F1.0
sS'Procedure'
p1011
F1.0
ssS'iga pemphigus-Procedure'
p1012
(dp1013
sg752
(dp1014
S'Other'
p1015
F1.0
sS'Dietary Supplement'
p1016
F1.0
ssg654
(dp1017
S'Device'
p1018
F0.3333333333333333
sS'Procedure'
p1019
F0.6666666666666666
ssg655
(dp1020
S'Drug'
p1021
F1.0
ssg604
(dp1022
S'Behavioral'
p1023
F1.0
ssS'intestinal diseases-Dietary Supplement'
p1024
(dp1025
g14
F1.0
sg16
F1.0
sg17
F0.0
sg42
F0.0
sg18
F0.0
sg19
F0.0
sg20
F0.0
sg43
F0.0
sg22
F0.0
sg23
F0.0
ssS'fecal incontinence-Other'
p1026
(dp1027
sS'unclassified iad knee and/or hip arthritis, muscular dystrophy-Other'
p1028
(dp1029
g23
F0.0
sg16
F0.0
sg17
F0.0
sg42
F0.0
sg53
F1.0
sg18
F0.0
sg19
F0.0
sg20
F0.0
sg43
F0.0
sg22
F0.0
ssS'fatigue-Behavioral'
p1030
(dp1031
g14
F1.0
sg16
F0.0
sg17
F0.0
sg18
F1.0
sg19
F0.0
sg20
F0.0
sg43
F0.0
sg22
F0.0
sg459
F1.0
sg23
F0.0
ssS'sclerosing cholangitis-Biological'
p1032
(dp1033
g114
F1.0
sS'thalidomide'
p1034
F1.0
sS'interleukin-10'
p1035
F1.0
sg92
F1.0
sg42
F1.0
sg385
F1.0
sg192
F1.0
sg93
F1.0
sg21
F1.0
sg113
F1.0
ssS'oral ulcer-Drug'
p1036
(dp1037
g23
F0.0
sg16
F0.0
sg17
F0.0
sg42
F0.0
sg18
F0.0
sg19
F0.0
sg20
F0.0
sg43
F0.0
sg22
F0.0
sg38
F1.0
ssS'fmf-Other'
p1038
(dp1039
g23
F0.0
sg16
F0.0
sg17
F0.0
sg42
F0.0
sg53
F1.0
sg18
F0.0
sg19
F0.0
sg20
F0.0
sg43
F0.0
sg22
F0.0
ssg660
(dp1040
S'Procedure'
p1041
F0.3333333333333333
ssS'amicrobial pustulosis of the folds-Procedure'
p1042
(dp1043
sg615
(dp1044
S'Drug'
p1045
F1.0
ssg662
(dp1046
S'Behavioral'
p1047
F0.5
ssS'psoriatic arthritis-Biological'
p1048
(dp1049
g14
F1.0
sg15
F0.5
sg16
F0.5
sg23
F0.0
sg17
F0.0
sg70
F0.5
sg71
F0.5
sg21
F0.5
sg22
F0.0
sg69
F0.5
ssS'medium vessel vasculitis-Procedure'
p1050
(dp1051
sg667
(dp1052
sS'short bowel syndrome (sbs)-Dietary Supplement'
p1053
(dp1054
g41
F0.0
sg23
F0.0
sg16
F0.0
sg17
F0.0
sg42
F0.0
sg18
F0.0
sg19
F0.0
sg20
F0.0
sg43
F0.0
sg22
F0.0
ssg673
(dp1055
sg674
(dp1056
S'Drug'
p1057
F1.0
ssS'surgical site infection-Device'
p1058
(dp1059
g41
F0.0
sg23
F0.0
sg16
F0.0
sg17
F0.0
sg42
F0.0
sg18
F0.0
sg19
F0.0
sg20
F0.0
sg43
F0.0
sg22
F0.0
ssS'small vessel vasculitis including urticarial vasculitis-Procedure'
p1060
(dp1061
sg678
(dp1062
sS"behcet's disease-Drug"
p1063
(dp1064
g23
F0.0
sg16
F0.0
sg17
F0.0
sg53
F1.0
sg54
F1.0
sg19
F0.0
sg20
F0.0
sg43
F0.0
sg18
F0.0
sg22
F0.0
ssS'chronic hepatitis-Behavioral'
p1065
(dp1066
sg683
(dp1067
S'Procedure'
p1068
F1.0
ssg684
(dp1069
S'Other'
p1070
F1.0
ssS'bacteria-Procedure'
p1071
(dp1072
g157
F1.0
sg23
F0.0
sg16
F0.0
sg17
F0.0
sg42
F0.0
sg18
F0.0
sg19
F0.0
sg20
F0.0
sg43
F0.0
sg22
F0.0
ssS'gastrointestinal hemorrhage-Drug'
p1073
(dp1074
g41
F0.0
sg23
F0.0
sg16
F0.0
sg17
F0.0
sg42
F0.0
sg18
F0.0
sg19
F0.0
sg20
F0.0
sg43
F0.0
sg22
F0.0
ssS'bowel-associated dermatosis-arthritis syndrome-Procedure'
p1075
(dp1076
sS'arthritis-Behavioral'
p1077
(dp1078
sg690
(dp1079
S'Other'
p1080
F1.0
ssS'erythema elevatum diutinum-Procedure'
p1081
(dp1082
sg695
(dp1083
S'Drug'
p1084
F0.5
ssg697
(dp1085
sg699
(dp1086
S'Behavioral'
p1087
F1.0
ssS'colorectal cancer-Device'
p1088
(dp1089
g41
F0.0
sg23
F0.0
sg16
F0.0
sg17
F0.0
sg42
F0.0
sg18
F0.0
sg19
F0.0
sg20
F0.0
sg43
F0.0
sg22
F0.0
ssS'iron deficiency anemia (ida) secondary to inflammatory bowel disease (ibd) or gastric bypass-Drug'
p1090
(dp1091
g23
F0.0
sg16
F0.0
sg19
F0.0
sg17
F0.0
sg18
F0.0
sS'injectafer'
p1092
F1.0
sg801
F1.0
sg20
F0.0
sg22
F0.0
sg14
F1.0
ssS'surgical site infection-Procedure'
p1093
(dp1094
g41
F0.0
sg23
F0.0
sg16
F0.0
sg17
F0.0
sg42
F0.0
sg18
F0.0
sg19
F0.0
sg20
F0.0
sg43
F0.0
sg22
F0.0
ssg704
(dp1095
S'Other'
p1096
F1.0
sS'Dietary Supplement'
p1097
F1.0
ssg639
(dp1098
S'Device'
p1099
F1.0
sS'Procedure'
p1100
F1.0
ssS'abdominal pain-Drug'
p1101
(dp1102
g117
F1.0
sg118
F1.0
sg92
F1.0
sg119
F1.0
sg42
F1.0
sg21
F1.0
sg36
F1.0
sg120
F1.0
sg121
F1.0
sg112
F1.0
ssS'hypertension-Behavioral'
p1103
(dp1104
sg601
(dp1105
sg713
(dp1106
S'Dietary Supplement'
p1107
F1.0
ssS'inflammatory arthritis-Drug'
p1108
(dp1109
g69
F1.0
sg16
F1.0
sg23
F0.0
sg17
F0.0
sg70
F1.0
sg18
F0.0
sg19
F0.0
sg71
F1.0
sg22
F0.0
sg14
F1.0
ssS'irritable bowel syndrome-Other'
p1110
(dp1111
g23
F0.0
sg34
F0.5
sg16
F0.0
sg17
F0.0
sg18
F0.0
sg19
F0.0
sg20
F0.0
sg43
F0.0
sg22
F0.0
sg154
F0.5
ssS'musculoskeletal pain-Behavioral'
p1112
(dp1113
sg730
(dp1114
S'Procedure'
p1115
F1.0
ssS'graft versus host disease-Drug'
p1116
(dp1117
g41
F0.0
sg23
F0.0
sg16
F0.0
sg17
F0.0
sg42
F0.0
sg18
F0.0
sg19
F0.0
sg20
F0.0
sg43
F0.0
sg22
F0.0
ssS'axial spondyloarthritis (axspa)-Biological'
p1118
(dp1119
g14
F1.0
sg15
F1.0
sg16
F0.0
sg17
F0.0
sg18
F0.0
sg19
F0.0
sg20
F0.0
sg21
F1.0
sg22
F0.0
sg23
F0.0
ssg720
(dp1120
S'Drug'
p1121
F0.5
sS'Behavioral'
p1122
F0.5
ssg721
(dp1123
S'Drug'
p1124
F1.0
ssS'diabetic retinopathy-Drug'
p1125
(dp1126
g788
F1.0
sg23
F0.0
sg789
F1.0
sg790
F1.0
sg16
F1.0
sg17
F0.0
sg18
F0.0
sg19
F0.0
sg20
F0.0
sg22
F0.0
ssg718
(dp1127
S'Drug'
p1128
F1.0
ssS'postoperative disease recurrence-Procedure'
p1129
(dp1130
g41
F0.0
sg23
F0.0
sg16
F0.0
sg17
F0.0
sg42
F0.0
sg18
F0.0
sg19
F0.0
sg20
F0.0
sg43
F0.0
sg22
F0.0
ssS"crohn's disease, remission (6a: with ibs symptoms, 6b: without ibs symptoms)-Other"
p1131
(dp1132
g41
F0.0
sg23
F0.0
sg16
F0.0
sg17
F0.0
sg42
F0.0
sg18
F0.0
sg19
F0.0
sg20
F0.0
sg43
F0.0
sg22
F0.0
ssg644
(dp1133
S'Device'
p1134
F1.0
sS'Procedure'
p1135
F1.0
ssg725
(dp1136
sg666
(dp1137
S'Other'
p1138
F1.0
ssS'enteritis-Other'
p1139
(dp1140
g41
F0.0
sg23
F0.0
sg16
F0.0
sg17
F0.0
sg42
F0.0
sg18
F0.0
sg19
F0.0
sg20
F0.0
sg43
F0.0
sg22
F0.0
ssg728
(dp1141
sS'diverticulitis-Device'
p1142
(dp1143
g41
F0.0
sg23
F0.0
sg16
F0.0
sg17
F0.0
sg42
F0.0
sg18
F0.0
sg19
F0.0
sg20
F0.0
sg43
F0.0
sg22
F0.0
ssS'rectal cancer-Device'
p1144
(dp1145
g205
F1.0
sg351
F1.0
sg352
F1.0
sg16
F1.0
sg883
F1.0
sg159
F1.0
sg206
F1.0
sg353
F1.0
sg160
F1.0
sg20
F1.0
ssg737
(dp1146
S'Behavioral'
p1147
F1.0
ssS'inflammatory bowel disease-Procedure'
p1148
(dp1149
g157
F0.08333333333333333
sg133
F0.08333333333333333
sg34
F0.16666666666666666
sg16
F0.08333333333333333
sg883
F0.16666666666666666
sg159
F0.08333333333333333
sS'spironolactone'
p1150
F0.08333333333333333
sS'ra'
p1151
F0.08333333333333333
sg20
F0.08333333333333333
sg154
F0.16666666666666666
ssS'rheumatic diseases-Other'
p1152
(dp1153
g14
F1.0
sg16
F0.0
sg17
F0.0
sg42
F0.0
sg18
F0.0
sg19
F0.0
sg20
F0.0
sg43
F0.0
sg22
F0.0
sg23
F0.0
ssS'bacteria-Drug'
p1154
(dp1155
g157
F1.0
sg23
F0.0
sg16
F0.0
sg17
F0.0
sg42
F0.0
sg18
F0.0
sg19
F0.0
sg20
F0.0
sg43
F0.0
sg22
F0.0
ssS"crohn's disease-Dietary Supplement"
p1156
(dp1157
g205
F0.09090909090909091
sg130
F0.09090909090909091
sg575
F0.09090909090909091
sg206
F0.09090909090909091
sg207
F0.09090909090909091
sg385
F0.09090909090909091
sg36
F0.09090909090909091
sS'inulin'
p1158
F0.09090909090909091
sS'b3'
p1159
F0.09090909090909091
sg21
F0.09090909090909091
ssg745
(dp1160
S'Biological'
p1161
F1.0
sS'Procedure'
p1162
F1.0
ssg727
(dp1163
S'Drug'
p1164
F1.0
ssS'systemic lupus erythematosus-Drug'
p1165
(dp1166
g23
F0.0
sg16
F0.0
sg17
F0.0
sg53
F1.0
sg54
F1.0
sg19
F0.0
sg20
F0.0
sg43
F0.0
sg18
F0.0
sg22
F0.0
ssg749
(dp1167
S'Biological'
p1168
F1.0
ssg750
(dp1169
S'Device'
p1170
F1.0
sS'Procedure'
p1171
F1.0
ssg669
(dp1172
S'Behavioral'
p1173
F1.0
ssS'haematopoietic stem cell transplantation-Device'
p1174
(dp1175
sg693
(dp1176
S'Other'
p1177
F1.0
ssg753
(dp1178
S'Drug'
p1179
F1.0
ssg755
(dp1180
S'Other'
p1181
F1.0
ssg756
(dp1182
S'Radiation'
p1183
F0.004901960784313725
sS'Drug'
p1184
F0.3872549019607843
sS'Dietary Supplement'
p1185
F0.05392156862745098
sS'Other'
p1186
F0.13725490196078433
sS'Behavioral'
p1187
F0.0392156862745098
sS'Device'
p1188
F0.06862745098039216
sS'Biological'
p1189
F0.09313725490196079
sS'Procedure'
p1190
F0.07352941176470588
ssS'irritable bowel syndrome-Procedure'
p1191
(dp1192
g14
F1.0
sg16
F1.0
sg17
F0.0
sg42
F0.0
sg18
F0.0
sg19
F0.0
sg20
F0.0
sg43
F0.0
sg22
F0.0
sg23
F0.0
ssg717
(dp1193
S'Drug'
p1194
F1.0
ssS'colon polyps-Biological'
p1195
(dp1196
g23
F0.0
sg790
F1.0
sg16
F1.0
sg17
F0.0
sg42
F0.0
sg18
F0.0
sg19
F0.0
sg20
F0.0
sg43
F0.0
sg22
F0.0
ssS'clostridium difficile-Other'
p1197
(dp1198
S'bismuth'
p1199
F1.0
sg14
F1.0
sg16
F1.0
sg17
F0.0
sg18
F0.0
sg19
F0.0
sg20
F0.0
sg43
F1.0
sg22
F0.0
sg23
F0.0
ssS'inflammatory epidermolysis bullosa aquisita-Procedure'
p1200
(dp1201
sS'pustular psoriasis-Procedure'
p1202
(dp1203
sg762
(dp1204
sS'hepatitis b, chronic-Other'
p1205
(dp1206
g14
F1.0
sg16
F0.0
sg17
F0.0
sg42
F0.0
sg18
F0.0
sg19
F0.0
sg20
F0.0
sg43
F0.0
sg22
F0.0
sg23
F0.0
ssg622
(dp1207
S'Other'
p1208
F1.0
sS'Drug'
p1209
F1.0
ssg598
(dp1210
S'Device'
p1211
F1.0
ssS'inflammatory arthritis-Biological'
p1212
(dp1213
g69
F1.0
sg16
F1.0
sg23
F0.0
sg17
F0.0
sg70
F1.0
sg18
F0.0
sg19
F0.0
sg71
F1.0
sg22
F0.0
sg14
F1.0
ssg605
(dp1214
S'Behavioral'
p1215
F1.0
ssS'fecal microbiota transplantation-Procedure'
p1216
(dp1217
g157
F1.0
sg23
F0.0
sg16
F0.0
sg17
F0.0
sg42
F0.0
sg18
F0.0
sg19
F0.0
sg20
F0.0
sg43
F0.0
sg22
F0.0
ssS'colorectal cancer-Biological'
p1218
(dp1219
g23
F0.0
sg790
F1.0
sg16
F1.0
sg17
F0.0
sg42
F0.0
sg18
F0.0
sg19
F0.0
sg20
F0.0
sg43
F0.0
sg22
F0.0
ssS'ischemic heart disease-Drug'
p1220
(dp1221
sS'diabetes-Behavioral'
p1222
(dp1223
sS"sweet's syndrome-Procedure"
p1224
(dp1225
sS'intestine perforation-Dietary Supplement'
p1226
(dp1227
g41
F0.0
sg23
F0.0
sg16
F0.0
sg17
F0.0
sg42
F0.0
sg18
F0.0
sg19
F0.0
sg20
F0.0
sg43
F0.0
sg22
F0.0
ssS'bowel diseases, inflammatory-Biological'
p1228
(dp1229
g152
F1.0
sg23
F0.0
sg16
F0.0
sg17
F0.0
sg36
F1.0
sg18
F0.0
sg19
F0.0
sg20
F0.0
sg43
F0.0
sg22
F0.0
ssS'gastrointestinal diseases-Drug'
p1230
(dp1231
g399
F0.5
sg117
F0.5
sg118
F0.5
sg92
F0.5
sg119
F0.5
sg42
F0.5
sg120
F0.5
sg93
F1.0
sg43
F0.5
sg121
F0.5
ssg677
(dp1232
S'Other'
p1233
F1.0
ssS'sleep disturbance-Drug'
p1234
(dp1235
g14
F1.0
sg16
F0.0
sg17
F0.0
sg18
F1.0
sg19
F0.0
sg20
F0.0
sg43
F0.0
sg22
F0.0
sg459
F1.0
sg23
F0.0
ssS'psoriatic arthritis-Procedure'
p1236
(dp1237
g14
F1.0
sg15
F1.0
sg16
F0.0
sg17
F0.0
sg18
F0.0
sg19
F0.0
sg20
F0.0
sg21
F1.0
sg22
F0.0
sg23
F0.0
ssg679
(dp1238
S'Other'
p1239
F1.0
ssS'infections, pneumococcal-Biological'
p1240
(dp1241
g152
F1.0
sg23
F0.0
sg16
F0.0
sg17
F0.0
sg36
F1.0
sg18
F0.0
sg19
F0.0
sg20
F0.0
sg43
F0.0
sg22
F0.0
ssg606
(dp1242
sS'neutrophilic eccrine hidradenitis-Procedure'
p1243
(dp1244
sg729
(dp1245
S'Other'
p1246
F1.0
ssg609
(dp1247
S'Procedure'
p1248
F1.0
ssS'chronic arthritis-Drug'
p1249
(dp1250
sS'asthma-Behavioral'
p1251
(dp1252
sS'infantile acropustulosis-Procedure'
p1253
(dp1254
sg600
(dp1255
sS'necrotizing enterocolitis (nec)-Dietary Supplement'
p1256
(dp1257
g41
F0.0
sg23
F0.0
sg16
F0.0
sg17
F0.0
sg42
F0.0
sg18
F0.0
sg19
F0.0
sg20
F0.0
sg43
F0.0
sg22
F0.0
ssg613
(dp1258
sS"crohn's disease-Other"
p1259
(dp1260
g32
F0.1111111111111111
sg37
F0.18518518518518517
sg14
F0.07407407407407407
sg16
F0.07407407407407407
sg385
F0.07407407407407407
sg36
F0.2222222222222222
sg21
F0.07407407407407407
sg33
F0.037037037037037035
sg271
F0.07407407407407407
sg38
F0.07407407407407407
ssS"perianal crohn's disease-Drug"
p1261
(dp1262
sg617
(dp1263
S'Biological'
p1264
F1.0
ssg618
(dp1265
sS'healthy volunteer-Other'
p1266
(dp1267
g23
F0.0
sg16
F0.0
sg17
F0.0
sg42
F0.0
sg53
F1.0
sg18
F0.0
sg19
F0.0
sg20
F0.0
sg43
F0.0
sg22
F0.0
ssg620
(dp1268
S'Procedure'
p1269
F1.0
ssS'transition from pediatric to adult care.-Behavioral'
p1270
(dp1271
g23
F0.0
sg16
F0.0
sg17
F0.0
sg42
F0.0
sg18
F0.0
sg19
F0.0
sg20
F0.0
sg43
F0.0
sg22
F0.0
sg38
F1.0
ssS'abscess-Other'
p1272
(dp1273
g32
F1.0
sg269
F1.0
sg37
F1.0
sg23
F0.0
sg16
F0.0
sg36
F1.0
sg270
F1.0
sg21
F1.0
sg22
F0.0
sg271
F1.0
ssg625
(dp1274
S'Other'
p1275
F1.0
ssS'intestinal diseases-Drug'
p1276
(dp1277
g399
F0.5
sg117
F0.5
sg118
F0.5
sg92
F0.5
sg119
F0.5
sg42
F0.5
sg120
F0.5
sg93
F1.0
sg43
F0.5
sg121
F0.5
ssg628
(dp1278
sg629
(dp1279
S'Device'
p1280
F0.25
sS'Behavioral'
p1281
F0.25
ssg619
(dp1282
S'Device'
p1283
F1.0
sS'Procedure'
p1284
F1.0
ssS"crohn's disease-Radiation"
p1285
(dp1286
S'iodine'
p1287
F1.0
sg23
F0.0
sg16
F1.0
sg17
F0.0
sg42
F0.0
sg18
F0.0
sg19
F0.0
sg20
F0.0
sg43
F0.0
sg22
F0.0
ssg634
(dp1288
S'Biological'
p1289
F0.3333333333333333
sS'Drug'
p1290
F0.3333333333333333
sS'Behavioral'
p1291
F0.3333333333333333
ssg637
(dp1292
sg671
(dp1293
S'Other'
p1294
F1.0
sS'Drug'
p1295
F1.0
ssg736
(dp1296
S'Biological'
p1297
F1.0
ssg763
(dp1298
S'Biological'
p1299
F1.0
sS'Procedure'
p1300
F1.0
ssg633
(dp1301
S'Other'
p1302
F1.0
ssg672
(dp1303
S'Drug'
p1304
F1.0
ssS'colorectal neoplasms-Behavioral'
p1305
(dp1306
g23
F0.0
sg16
F0.0
sg17
F0.0
sg42
F0.0
sg160
F1.0
sg18
F0.0
sg19
F0.0
sg20
F0.0
sg43
F0.0
sg22
F0.0
ssS'thyroid disorder-Behavioral'
p1307
(dp1308
sg630
(dp1309
S'Procedure'
p1310
F1.0
ssS"crohn's disease, active-Other"
p1311
(dp1312
g41
F0.0
sg23
F0.0
sg16
F0.0
sg17
F0.0
sg42
F0.0
sg18
F0.0
sg19
F0.0
sg20
F0.0
sg43
F0.0
sg22
F0.0
ssg650
(dp1313
S'Procedure'
p1314
F1.0
ssS'kidney disease-Behavioral'
p1315
(dp1316
sg652
(dp1317
sS'colorectal cancer-Procedure'
p1318
(dp1319
g133
F0.3333333333333333
sS'dna'
p1320
F0.3333333333333333
sg23
F0.0
sg16
F0.0
sg17
F0.0
sg18
F0.0
sg19
F0.0
sg801
F0.3333333333333333
sg121
F0.3333333333333333
sg22
F0.0
ssS'diverticulitis-Procedure'
p1321
(dp1322
g133
F0.5
sg23
F0.0
sg402
F0.5
sg16
F0.0
sg17
F0.0
sg18
F0.0
sg19
F0.0
sg20
F0.0
sg43
F0.0
sg22
F0.0
ssg656
(dp1323
S'Other'
p1324
F1.0
ssg657
(dp1325
S'Procedure'
p1326
F1.0
ssg658
(dp1327
sg659
(dp1328
S'Dietary Supplement'
p1329
F1.0
ssg734
(dp1330
S'Other'
p1331
F1.0
ssS'dermatitis herpetiformis-Procedure'
p1332
(dp1333
sS'ankylosing spondylitis-Other'
p1334
(dp1335
g23
F0.0
sg16
F0.0
sg17
F0.0
sg42
F0.0
sg53
F1.0
sg18
F0.0
sg19
F0.0
sg20
F0.0
sg43
F0.0
sg22
F0.0
ssg663
(dp1336
S'Device'
p1337
F1.0
ssg665
(dp1338
S'Procedure'
p1339
F1.0
ssS'stroke-Behavioral'
p1340
(dp1341
sS'colonic diseases-Device'
p1342
(dp1343
g205
F1.0
sg351
F1.0
sg352
F1.0
sg16
F1.0
sg883
F1.0
sg159
F1.0
sg206
F1.0
sg353
F1.0
sg160
F1.0
sg20
F1.0
ssg670
(dp1344
S'Behavioral'
p1345
F1.0
ssg715
(dp1346
S'Behavioral'
p1347
F1.0
ssS'ulcerative colitis-Device'
p1348
(dp1349
g32
F0.06666666666666667
sg14
F0.13333333333333333
sg519
F0.06666666666666667
sg790
F0.06666666666666667
sg16
F0.2
sg92
F0.06666666666666667
sg520
F0.06666666666666667
sg95
F0.2
sg21
F0.06666666666666667
sg522
F0.06666666666666667
ssS'fistula-Device'
p1350
(dp1351
g23
F0.0
sg16
F0.0
sg17
F0.0
sg294
F1.0
sg18
F0.0
sg93
F1.0
sg20
F0.0
sg43
F0.0
sg22
F0.0
sg19
F0.0
ssg675
(dp1352
S'Behavioral'
p1353
F1.0
ssg676
(dp1354
sg688
(dp1355
S'Procedure'
p1356
F1.0
ssS'colorectal cancer-Other'
p1357
(dp1358
g23
F0.0
sg16
F0.0
sg17
F0.0
sg42
F0.0
sg18
F0.0
sg19
F0.0
sg20
F0.0
sg43
F0.0
sg22
F0.0
sg38
F1.0
ssg680
(dp1359
sS'short bowel syndrome-Drug'
p1360
(dp1361
g41
F0.0
sg23
F0.0
sg16
F0.0
sg17
F0.0
sg42
F0.0
sg18
F0.0
sg19
F0.0
sg20
F0.0
sg43
F0.0
sg22
F0.0
ssS'atrial fibrillation-Drug'
p1362
(dp1363
sS'clostridium difficile colitis-Other'
p1364
(dp1365
g41
F0.0
sg23
F0.0
sg16
F0.0
sg17
F0.0
sg42
F0.0
sg18
F0.0
sg19
F0.0
sg20
F0.0
sg43
F0.0
sg22
F0.0
ssg691
(dp1366
S'Other'
p1367
F1.0
ssS'enteropathic arthritis-Biological'
p1368
(dp1369
g69
F1.0
sg16
F1.0
sg23
F0.0
sg17
F0.0
sg70
F1.0
sg18
F0.0
sg19
F0.0
sg71
F1.0
sg22
F0.0
sg14
F1.0
ssg692
(dp1370
sS'diverticular disease-Device'
p1371
(dp1372
g205
F1.0
sg351
F1.0
sg352
F1.0
sg16
F1.0
sg883
F1.0
sg159
F1.0
sg206
F1.0
sg353
F1.0
sg160
F1.0
sg20
F1.0
ssS'psoriasis-Biological'
p1373
(dp1374
g69
F1.0
sg16
F1.0
sg23
F0.0
sg17
F0.0
sg70
F1.0
sg18
F0.0
sg19
F0.0
sg71
F1.0
sg22
F0.0
sg14
F1.0
ssS'haematopoietic stem cell transplantation-Procedure'
p1375
(dp1376
sS'anemia-Drug'
p1377
(dp1378
sS"moderate to severe crohn's disease-Biological"
p1379
(dp1380
g152
F1.0
sg23
F0.0
sg16
F0.0
sg92
F1.0
sg17
F0.0
sg113
F1.0
sg18
F0.0
sg19
F0.0
sg20
F0.0
sg22
F0.0
ssS'complications of surgical procedures-Procedure'
p1381
(dp1382
g41
F0.0
sg23
F0.0
sg16
F0.0
sg17
F0.0
sg42
F0.0
sg18
F0.0
sg19
F0.0
sg20
F0.0
sg43
F0.0
sg22
F0.0
ssS"crohn's ileocolitis-Drug"
p1383
(dp1384
g32
F1.0
sg23
F0.0
sg16
F1.0
sg17
F0.0
sg36
F1.0
sg18
F0.0
sg19
F0.0
sg20
F0.0
sg21
F1.0
sg22
F0.0
ssS'chronic diarrhea-Procedure'
p1385
(dp1386
g41
F0.0
sg23
F0.0
sg16
F0.0
sg17
F0.0
sg42
F0.0
sg18
F0.0
sg19
F0.0
sg20
F0.0
sg43
F0.0
sg22
F0.0
ssS'stenosis-Device'
p1387
(dp1388
g41
F0.0
sg23
F0.0
sg16
F0.0
sg17
F0.0
sg42
F0.0
sg18
F0.0
sg19
F0.0
sg20
F0.0
sg43
F0.0
sg22
F0.0
ssS'fistula-Procedure'
p1389
(dp1390
g431
F0.5
sg23
F0.0
sg16
F0.0
sg17
F0.0
sg294
F0.5
sg18
F0.0
sg93
F0.5
sg20
F0.0
sg22
F0.0
sg19
F0.0
ssS'ulcerative colitis-Dietary Supplement'
p1391
(dp1392
S'mercaptopurine'
p1393
F0.16666666666666666
sg133
F0.08333333333333333
sg32
F0.25
sg14
F0.08333333333333333
sS'phenylketonuria'
p1394
F0.08333333333333333
sg16
F0.08333333333333333
sg208
F0.08333333333333333
sg160
F0.08333333333333333
sg154
F0.08333333333333333
sS'aloe'
p1395
F0.08333333333333333
ssS'inflammatory bowel disease-Drug'
p1396
(dp1397
g157
F0.08
sg14
F0.08
sg34
F0.12
sg16
F0.08
sg92
F0.08
sg36
F0.08
sg93
F0.16
sg801
F0.08
sg21
F0.08
sg38
F0.12
ssS'healthy-Other'
p1398
(dp1399
g23
F0.0
sg16
F0.0
sg17
F0.0
sg42
F0.0
sg53
F0.5
sg18
F0.0
sg19
F0.0
sg20
F0.0
sg43
F0.0
sg22
F0.0
ssS"crohn's disease-Biological"
p1400
(dp1401
g222
F0.11764705882352941
sg118
F0.058823529411764705
sg14
F0.29411764705882354
sg16
F0.11764705882352941
sg19
F0.058823529411764705
sg193
F0.11764705882352941
sg36
F0.11764705882352941
sg93
F0.11764705882352941
sg120
F0.11764705882352941
sg38
F0.11764705882352941
ssg610
(dp1402
S'Behavioral'
p1403
F1.0
ssg607
(dp1404
S'Other'
p1405
F1.0
ssS'erosive pustular dermatosis of the scalp-Procedure'
p1406
(dp1407
sg716
(dp1408
S'Device'
p1409
F0.25
sS'Drug'
p1410
F0.5
sS'Dietary Supplement'
p1411
F0.25
ssg703
(dp1412
S'Behavioral'
p1413
F1.0
ssg748
(dp1414
S'Behavioral'
p1415
F1.0
ssg723
(dp1416
S'Device'
p1417
F0.5
sS'Procedure'
p1418
F1.0
ssg724
(dp1419
S'Other'
p1420
F1.0
ssS'ulcer-Behavioral'
p1421
(dp1422
sg746
(dp1423
S'Procedure'
p1424
F1.0
ssg747
(dp1425
S'Procedure'
p1426
F1.0
ssS'colonic diseases-Drug'
p1427
(dp1428
g117
F1.0
sg118
F1.0
sg92
F1.0
sg119
F1.0
sg42
F1.0
sg21
F1.0
sg36
F1.0
sg120
F1.0
sg121
F1.0
sg112
F1.0
ssS'lymphocytic colitis-Procedure'
p1429
(dp1430
g41
F0.0
sg23
F0.0
sg16
F0.0
sg17
F0.0
sg42
F0.0
sg18
F0.0
sg19
F0.0
sg20
F0.0
sg43
F0.0
sg22
F0.0
ssS'prematurity-Dietary Supplement'
p1431
(dp1432
g41
F0.0
sg23
F0.0
sg16
F0.0
sg17
F0.0
sg42
F0.0
sg18
F0.0
sg19
F0.0
sg20
F0.0
sg43
F0.0
sg22
F0.0
ssg733
(dp1433
S'Behavioral'
p1434
F1.0
ssS'clostridium difficile infection (cdi)-Drug'
p1435
(dp1436
g41
F0.0
sg23
F0.0
sg16
F0.0
sg17
F0.0
sg42
F0.0
sg18
F0.0
sg19
F0.0
sg20
F0.0
sg43
F0.0
sg22
F0.0
ssg735
(dp1437
S'Drug'
p1438
F0.5
ssg616
(dp1439
sg740
(dp1440
S'Other'
p1441
F1.0
ssg742
(dp1442
S'Behavioral'
p1443
F1.0
ssS'chronic inflammation-Device'
p1444
(dp1445
g41
F0.0
sg23
F0.0
sg16
F0.0
sg17
F0.0
sg42
F0.0
sg18
F0.0
sg19
F0.0
sg20
F0.0
sg43
F0.0
sg22
F0.0
ssS'fatigue-Other'
p1446
(dp1447
g23
F0.0
sg16
F0.0
sg17
F0.0
sg42
F0.0
sg18
F0.0
sg19
F0.0
sg20
F0.0
sg43
F0.0
sg22
F0.0
sg38
F1.0
ssg743
(dp1448
S'Behavioral'
p1449
F1.0
ssg744
(dp1450
S'Drug'
p1451
F1.0
ssS'sneddon-wilkinson disease-Procedure'
p1452
(dp1453
sS'non-ibd colitis-Device'
p1454
(dp1455
g41
F0.0
sg23
F0.0
sg16
F0.0
sg17
F0.0
sg42
F0.0
sg18
F0.0
sg19
F0.0
sg20
F0.0
sg43
F0.0
sg22
F0.0
ssS'ulcerative colitis, active-Other'
p1456
(dp1457
g41
F0.0
sg23
F0.0
sg16
F0.0
sg17
F0.0
sg42
F0.0
sg18
F0.0
sg19
F0.0
sg20
F0.0
sg43
F0.0
sg22
F0.0
ssg706
(dp1458
S'Device'
p1459
F1.0
ssg757
(dp1460
sS'children with a deficiency of alpha-1 antitrypsin-Other'
p1461
(dp1462
g41
F0.0
sg23
F0.0
sg16
F0.0
sg17
F0.0
sg42
F0.0
sg18
F0.0
sg19
F0.0
sg20
F0.0
sg43
F0.0
sg22
F0.0
ssS'ankylosing spondylitis-Procedure'
p1463
(dp1464
g14
F0.5
sg23
F0.0
sg15
F0.5
sg16
F0.0
sg883
F0.5
sg17
F0.0
sg1151
F0.5
sg21
F0.5
sg22
F0.0
sg154
F0.5
ssg760
(dp1465
sS'inflammatory bowel disease-Biological'
p1466
(dp1467
g133
F0.1111111111111111
sg23
F0.1111111111111111
sg34
F0.1111111111111111
sg790
F0.1111111111111111
sg16
F0.3333333333333333
sg36
F0.1111111111111111
sg192
F0.1111111111111111
sg120
F0.1111111111111111
sg121
F0.1111111111111111
sg38
F0.1111111111111111
ss.