ccollections
defaultdict
p0
(c__builtin__
list
p1
tp2
Rp3
S''
p4
(lp5
S'NCT01745029'
p6
aS'NCT02403232'
p7
aS'NCT02469220'
p8
aS'NCT02048137'
p9
aS'NCT02335281'
p10
aS'NCT02193464'
p11
aS'NCT02275676'
p12
aS'NCT01719198'
p13
aS'NCT02352064'
p14
aS'NCT02266849'
p15
aS'NCT01440699'
p16
aS'NCT02772406'
p17
aS'NCT01828190'
p18
aS'NCT02138318'
p19
aS'NCT01596075'
p20
aS'NCT02054533'
p21
aS'NCT02478944'
p22
aS'NCT02049502'
p23
aS'NCT02503514'
p24
aS'NCT02777034'
p25
aS'NCT02368717'
p26
aS'NCT02390622'
p27
aS'NCT00609752'
p28
aS'NCT02453776'
p29
aS'NCT00883077'
p30
aS'NCT02222584'
p31
aS'NCT02733276'
p32
aS'NCT02730325'
p33
aS'NCT02542904'
p34
aS'NCT00360022'
p35
aS'NCT02370056'
p36
aS'NCT01504048'
p37
aS'NCT01505842'
p38
aS'NCT02526251'
p39
aS'NCT01914887'
p40
aS'NCT00815061'
p41
aS'NCT02579733'
p42
aS'NCT00805428'
p43
aS'NCT02522767'
p44
aS'NCT02447302'
p45
aS'NCT01954875'
p46
aS'NCT02255370'
p47
aS'NCT02027727'
p48
aS'NCT00292175'
p49
aS'NCT01974869'
p50
aS'NCT00383344'
p51
aS'NCT02343601'
p52
aS'NCT02383953'
p53
aS'NCT02707068'
p54
aS'NCT02426762'
p55
aS'NCT02392221'
p56
aS'NCT02538354'
p57
aS'NCT02445690'
p58
aS'NCT01590043'
p59
aS'NCT02442037'
p60
aS'NCT01908283'
p61
aS'NCT02536404'
p62
aS'NCT02131168'
p63
aS'NCT02631967'
p64
aS'NCT01126931'
p65
aS'NCT02476643'
p66
aS'NCT01952275'
p67
aS'NCT01688557'
p68
aS'NCT02636517'
p69
aS'NCT00621257'
p70
aS'NCT01470547'
p71
aS'NCT01140802'
p72
aS'NCT01797224'
p73
aS'NCT01046773'
p74
aS'NCT02433470'
p75
aS'NCT01314092'
p76
aS'NCT01065571'
p77
aS'NCT01010815'
p78
aS'NCT02395354'
p79
aS'NCT02726243'
p80
aS'NCT02412553'
p81
aS'NCT02614014'
p82
aS'NCT01026480'
p83
aS'NCT02240108'
p84
aS'NCT02694588'
p85
aS'NCT01266629'
p86
aS'NCT01667029'
p87
aS'NCT01005589'
p88
aS'NCT01793831'
p89
aS'NCT02537210'
p90
aS'NCT01531075'
p91
aS'NCT00534131'
p92
aS'NCT02144129'
p93
aS'NCT01874015'
p94
aS'NCT02389790'
p95
aS'NCT02675153'
p96
aS'NCT02769494'
p97
aS'NCT02465385'
p98
aS'NCT00309660'
p99
aS'NCT00265772'
p100
aS'NCT01385124'
p101
aS'NCT00275418'
p102
aS'NCT00742118'
p103
aS'NCT02641171'
p104
aS'NCT01876264'
p105
aS'NCT02020382'
p106
aS'NCT00922415'
p107
aS'NCT01196702'
p108
aS'NCT01881464'
p109
aS'NCT01604564'
p110
aS'NCT01819766'
p111
aS'NCT02280629'
p112
aS'NCT01663142'
p113
aS'NCT01961492'
p114
aS'NCT01111708'
p115
aS'NCT02065557'
p116
aS'NCT01417715'
p117
aS'NCT01862211'
p118
aS'NCT01024647'
p119
aS'NCT00513552'
p120
aS'NCT02611830'
p121
aS'NCT01758926'
p122
aS'NCT02522780'
p123
aS'NCT02745678'
p124
aS'NCT01266785'
p125
aS'NCT02531126'
p126
aS'NCT02466217'
p127
aS'NCT01790061'
p128
aS'NCT01239082'
p129
aS'NCT01931644'
p130
aS'NCT00353756'
p131
aS'NCT01739608'
p132
aS'NCT02098798'
p133
aS'NCT02752360'
p134
aS'NCT01671579'
p135
aS'NCT01858220'
p136
aS'NCT02378688'
p137
aS'NCT01756963'
p138
aS'NCT02332356'
p139
aS'NCT01509976'
p140
aS'NCT02423460'
p141
aS'NCT00516776'
p142
aS'NCT00915044'
p143
aS'NCT02745457'
p144
aS'NCT00886327'
p145
aS'NCT02135289'
p146
aS'NCT01959087'
p147
aS'NCT02598414'
p148
aS'NCT02437591'
p149
aS'NCT01171807'
p150
aS'NCT02760836'
p151
aS'NCT01804166'
p152
aS'NCT01551563'
p153
aS'NCT02421705'
p154
aS'NCT02531113'
p155
aS'NCT02464020'
p156
aS'NCT01686477'
p157
aS'NCT02550418'
p158
aS'NCT02469103'
p159
aS'NCT02265588'
p160
aS'NCT01752361'
p161
aS'NCT02308917'
p162
aS'NCT01880918'
p163
aS'NCT02612103'
p164
aS'NCT02240121'
p165
aS'NCT02341742'
p166
aS'NCT02560727'
p167
aS'NCT01781481'
p168
aS'NCT01417702'
p169
aS'NCT02065622'
p170
aS'NCT01496053'
p171
aS'NCT01470612'
p172
aS'NCT02350920'
p173
aS'NCT00816491'
p174
aS'NCT00622557'
p175
aS'NCT02322307'
p176
aS'NCT02247622'
p177
aS'NCT01988506'
p178
aS'NCT02622139'
p179
aS'NCT02445365'
p180
aS'NCT02439372'
p181
aS'NCT01986127'
p182
aS'NCT02492555'
p183
aS'NCT01632488'
p184
aS'NCT01882205'
p185
aS'NCT00711945'
p186
aS'NCT01705522'
p187
aS'NCT02610101'
p188
aS'NCT02622763'
p189
aS'NCT02614911'
p190
aS'NCT00988273'
p191
aS'NCT02049775'
p192
aS'NCT02618187'
p193
aS'NCT02046694'
p194
aS'NCT01140789'
p195
aS'NCT02128503'
p196
aS'NCT02364973'
p197
aS'NCT01479660'
p198
aS'NCT02144350'
p199
aS'NCT01171872'
p200
asS'clofazimine'
p201
(lp202
S'NCT01951326'
p203
asS'pentasa'
p204
(lp205
S'NCT02261636'
p206
ag206
ag206
aS'NCT02227602'
p207
asS'mucosa'
p208
(lp209
S'NCT01731665'
p210
ag210
aS'NCT02640391'
p211
aS'NCT01671956'
p212
aS'NCT01464151'
p213
aS'NCT01503099'
p214
aS'NCT01392365'
p215
aS'NCT00001184'
p216
aS'NCT02229344'
p217
aS'NCT02493712'
p218
aS'NCT02065570'
p219
asS'sleep'
p220
(lp221
S'NCT02162862'
p222
asS'mesalazine'
p223
(lp224
S'NCT02559037'
p225
aS'NCT01540292'
p226
aS'NCT01783106'
p227
asS'purinethol'
p228
(lp229
S'NCT02367326'
p230
asS'loperamide'
p231
(lp232
S'NCT01851343'
p233
asS'prothrombin'
p234
(lp235
g233
asS'staff'
p236
(lp237
S'NCT02129439'
p238
aS'NCT01063309'
p239
asS'crp'
p240
(lp241
S'NCT00731809'
p242
aS'NCT02038920'
p243
aS'NCT02311660'
p244
aS'NCT02611817'
p245
aS'NCT02499783'
p246
aS'NCT02149043'
p247
aS'NCT02321280'
p248
aS'NCT02649075'
p249
ag226
aS'NCT02245594'
p250
ag250
aS'NCT02164877'
p251
aS'NCT00599625'
p252
aS'NCT02016469'
p253
aS'NCT02580864'
p254
aS'NCT01338740'
p255
ag255
asS'midazolam'
p256
(lp257
S'NCT01583712'
p258
asS'sulfasalazine'
p259
(lp260
S'NCT02289417'
p261
aS'NCT01491997'
p262
aS'NCT00603616'
p263
aS'NCT02461784'
p264
asS'cortisone'
p265
(lp266
g239
ag239
asS'allergy'
p267
(lp268
S'NCT02330653'
p269
aS'NCT01417728'
p270
aS'NCT02272868'
p271
aS'NCT02039063'
p272
ag239
asS'prednisolone'
p273
(lp274
S'NCT02084186'
p275
ag251
asS'omeprazole'
p276
(lp277
g271
asS'diphenoxylate'
p278
(lp279
g233
asS'canasa'
p280
(lp281
g207
asS'ferritin'
p282
(lp283
S'NCT02517151'
p284
aS'NCT01765439'
p285
aS'NCT02202967'
p286
aS'NCT02086968'
p287
asS'fat'
p288
(lp289
g215
aS'NCT01915927'
p290
asS'allergen'
p291
(lp292
g271
asS'corticotropin'
p293
(lp294
S'NCT02392286'
p295
aS'NCT02097797'
p296
asS'humira'
p297
(lp298
S'NCT02619552'
p299
ag299
aS'NCT02130362'
p300
ag300
aS'NCT02201693'
p301
aS'NCT01848561'
p302
ag302
ag302
ag302
aS'NCT02087878'
p303
aS'NCT01947816'
p304
aS'NCT02578238'
p305
ag305
asS'transferrin'
p306
(lp307
g284
aS'NCT02118584'
p308
aS'NCT02774057'
p309
aS'NCT02403323'
p310
asS'cyclosporine'
p311
(lp312
S'NCT02465944'
p313
aS'NCT01836289'
p314
aS'NCT01697670'
p315
aS'NCT02438410'
p316
aS'NCT01768858'
p317
aS'NCT01090154'
p318
ag318
ag318
ag233
asS'solution'
p319
(lp320
S'NCT02763293'
p321
asS'patch'
p322
(lp323
g261
aS'NCT02367183'
p324
aS'NCT02601300'
p325
ag233
asS'asacol'
p326
(lp327
S'NCT01331551'
p328
ag328
ag207
ag207
asS'release'
p329
(lp330
S'NCT02678052'
p331
ag331
aS'NCT02674308'
p332
ag317
asS'enema'
p333
(lp334
g269
ag206
asS'en'
p335
(lp336
S'NCT01477320'
p337
asS'antibiotic'
p338
(lp339
g269
aS'NCT02217722'
p340
ag275
aS'NCT02033408'
p341
ag216
aS'NCT00731172'
p342
asS'luminal'
p343
(lp344
S'NCT01817426'
p345
aS'NCT02520843'
p346
asS'methylprednisolone'
p347
(lp348
S'NCT01950507'
p349
asS'golimumab'
p350
(lp351
S'NCT01393405'
p352
aS'NCT02538757'
p353
aS'NCT02434133'
p354
aS'NCT02186886'
p355
ag355
ag325
ag318
asS'methotrexate'
p356
(lp357
g261
aS'NCT01653054'
p358
ag243
ag314
aS'NCT01418131'
p359
aS'NCT02165215'
p360
ag300
aS'NCT02365649'
p361
aS'NCT02256462'
p362
ag248
aS'NCT02596893'
p363
aS'NCT02000362'
p364
ag364
ag226
aS'NCT02405442'
p365
ag203
ag203
ag263
ag354
ag252
ag252
aS'NCT01388257'
p366
aS'NCT02150551'
p367
ag367
ag367
aS'NCT02520284'
p368
aS'NCT02177071'
p369
aS'NCT02084290'
p370
ag317
ag317
aS'NCT02186275'
p371
aS'NCT02324699'
p372
aS'NCT02148718'
p373
aS'NCT02685683'
p374
aS'NCT01971970'
p375
ag375
aS'NCT02225795'
p376
ag376
ag376
ag233
ag233
asS'voriconazole'
p377
(lp378
g349
asS'arm'
p379
(lp380
S'NCT02357537'
p381
ag381
aS'NCT02161640'
p382
ag285
ag285
ag285
aS'NCT02639416'
p383
asS'tabloid'
p384
(lp385
S'NCT02173002'
p386
asS'alcohol'
p387
(lp388
g313
ag313
ag315
asS'kind'
p389
(lp390
g318
ag318
ag318
asS'miralax'
p391
(lp392
g271
asS'ra'
p393
(lp394
g353
ag353
ag317
ag317
ag317
ag317
aS'NCT02389075'
p395
aS'NCT02750800'
p396
ag396
asS'estradiol'
p397
(lp398
S'NCT02513459'
p399
asS'fluconazole'
p400
(lp401
g349
asS'phosphate'
p402
(lp403
S'NCT00161148'
p404
aS'NCT02424175'
p405
asS'body'
p406
(lp407
S'NCT02754869'
p408
ag408
ag313
aS'NCT02463045'
p409
aS'NCT02717117'
p410
aS'NCT02426567'
p411
aS'NCT02379117'
p412
ag238
ag238
aS'NCT01626963'
p413
ag349
aS'NCT01015391'
p414
ag239
aS'NCT00488085'
p415
aS'NCT02749630'
p416
aS'NCT02772458'
p417
aS'NCT01823042'
p418
aS'NCT02093663'
p419
asS'uterine'
p420
(lp421
g399
aS'NCT00790478'
p422
aS'NCT01735461'
p423
aS'NCT02341248'
p424
ag218
asS'etanercept'
p425
(lp426
g353
ag233
asS'screen'
p427
(lp428
g313
aS'NCT02693730'
p429
asS'asa'
p430
(lp431
S'NCT00290524'
p432
aS'NCT01826188'
p433
aS'NCT01288053'
p434
aS'NCT02263365'
p435
ag368
aS'NCT01040910'
p436
aS'NCT01984879'
p437
asS'protection'
p438
(lp439
g212
aS'NCT02450513'
p440
ag207
aS'NCT01569503'
p441
aS'NCT02193750'
p442
asS'acetamide'
p443
(lp444
g275
asS'lialda'
p445
(lp446
g207
asS'care'
p447
(lp448
S'NCT02197780'
p449
aS'NCT02704728'
p450
aS'NCT01728870'
p451
aS'NCT02156557'
p452
aS'NCT02345733'
p453
aS'NCT02291523'
p454
aS'NCT02453607'
p455
aS'NCT02084550'
p456
aS'NCT01470599'
p457
aS'NCT02085083'
p458
ag308
aS'NCT01881490'
p459
aS'NCT01820247'
p460
aS'NCT00904878'
p461
aS'NCT02044952'
p462
ag211
aS'NCT02683759'
p463
aS'NCT02182947'
p464
aS'NCT01942655'
p465
aS'NCT01145365'
p466
aS'NCT02624037'
p467
aS'NCT01545063'
p468
ag349
ag423
aS'NCT01504113'
p469
aS'NCT02355834'
p470
aS'NCT02326155'
p471
ag310
aS'NCT02351635'
p472
aS'NCT02742597'
p473
ag473
aS'NCT02683733'
p474
ag239
aS'NCT01536509'
p475
aS'NCT01458574'
p476
aS'NCT02318667'
p477
aS'NCT02129972'
p478
aS'NCT02281916'
p479
aS'NCT02704026'
p480
ag216
aS'NCT02130349'
p481
aS'NCT02382705'
p482
ag207
aS'NCT02586259'
p483
ag217
aS'NCT01280825'
p484
ag484
ag484
ag396
ag437
aS'NCT01674478'
p485
aS'NCT00606346'
p486
aS'NCT02472457'
p487
aS'NCT02516384'
p488
aS'NCT01169194'
p489
ag233
aS'NCT01039597'
p490
aS'NCT02499263'
p491
aS'NCT02304666'
p492
asS'hbsag'
p493
(lp494
g313
asS'copaxone'
p495
(lp496
g342
asS'adalimumab'
p497
(lp498
g352
ag313
ag314
ag244
aS'NCT02413047'
p499
ag499
ag361
ag353
ag364
ag226
ag324
aS'NCT02676817'
p500
ag500
ag272
ag272
aS'NCT02425111'
p501
ag501
ag203
ag203
ag203
ag354
ag366
ag367
ag207
ag370
ag371
ag325
ag255
ag255
ag255
ag255
aS'NCT02451839'
p502
aS'NCT02539849'
p503
ag318
ag233
ag233
ag491
asS'remicade'
p504
(lp505
g299
ag299
ag301
aS'NCT02539368'
p506
asS'interferon'
p507
(lp508
g317
asS'fluorescein'
p509
(lp510
g270
ag258
asS'cyclophosphamide'
p511
(lp512
S'NCT00692939'
p513
ag513
asS'entocort'
p514
(lp515
g299
asS'cs'
p516
(lp517
S'NCT02394028'
p518
asS'rifabutin'
p519
(lp520
g203
asS'tnf'
p521
(lp522
g408
ag352
ag313
ag313
ag313
ag313
ag299
ag299
ag314
ag244
ag360
aS'NCT02647866'
p523
ag361
ag353
ag353
aS'NCT02624414'
p524
ag412
ag262
aS'NCT02575040'
p525
ag364
ag518
aS'NCT02100696'
p526
aS'NCT02497469'
p527
ag527
ag315
aS'NCT02066272'
p528
aS'NCT02589665'
p529
ag529
aS'NCT02277470'
p530
ag530
aS'NCT00224562'
p531
ag531
ag434
aS'NCT02407236'
p532
ag532
aS'NCT02646683'
p533
ag533
ag533
aS'NCT01657513'
p534
aS'NCT02200445'
p535
ag264
ag354
ag354
aS'NCT02073526'
p536
aS'NCT02136069'
p537
aS'NCT02412085'
p538
ag370
ag370
aS'NCT02580617'
p539
ag316
ag316
ag254
aS'NCT02646657'
p540
ag540
ag540
ag540
ag540
ag417
ag290
ag290
aS'NCT02163759'
p541
ag375
ag375
ag375
ag375
ag375
ag375
ag376
ag376
ag376
ag503
ag318
ag318
ag318
ag318
ag318
aS'NCT02171429'
p542
aS'NCT02574637'
p543
ag233
ag233
ag233
asS'ciprofloxacin'
p544
(lp545
g252
asS'dna'
p546
(lp547
g272
ag272
ag214
asS'5-asa'
p548
(lp549
S'NCT02179372'
p550
aS'NCT01231217'
p551
ag451
ag261
ag453
ag409
ag360
ag262
ag262
aS'NCT01783119'
p552
aS'NCT02442960'
p553
aS'NCT02093780'
p554
ag301
aS'NCT02481687'
p555
ag526
ag365
ag340
aS'NCT01771224'
p556
ag272
aS'NCT01149707'
p557
aS'NCT02193048'
p558
ag203
ag203
ag475
ag475
ag537
ag371
ag541
ag503
ag542
ag490
ag419
ag419
asS'aminotransferase'
p559
(lp560
g261
ag261
aS'NCT00793130'
p561
ag561
ag349
ag349
ag315
ag315
ag324
ag324
ag255
ag255
ag233
ag233
asS'naltrexone'
p562
(lp563
g233
asS'simponi'
p564
(lp565
g299
ag299
asS'start'
p566
(lp567
g352
aS'NCT02417974'
p568
ag295
aS'NCT01860651'
p569
ag451
ag243
ag243
ag243
ag243
aS'NCT02264275'
p570
ag570
ag570
ag570
aS'NCT02620514'
p571
aS'NCT02487238'
p572
ag272
ag272
ag272
ag272
ag227
aS'NCT01941589'
p573
aS'NCT02488005'
p574
aS'NCT02019602'
p575
aS'NCT02665845'
p576
ag491
asS'm0'
p577
(lp578
S'NCT02255227'
p579
asS'metronidazole'
p580
(lp581
g252
ag233
asS'metformin'
p582
(lp583
g239
ag239
asS'rifaximin'
p584
(lp585
g271
asS'antifungal'
p586
(lp587
g349
asS'heparin'
p588
(lp589
g571
asS'tpmt'
p590
(lp591
g233
asS'vedolizumab'
p592
(lp593
g352
ag314
aS'NCT02610569'
p594
ag308
ag365
ag332
ag529
ag529
ag532
ag532
ag532
ag310
ag203
aS'NCT02423512'
p595
ag595
ag368
ag372
ag372
ag318
asS'potassium'
p596
(lp597
g359
asS'inflectra'
p598
(lp599
g506
asS'hd'
p600
(lp601
S'NCT02193685'
p602
ag602
ag602
ag602
asS'cytotoxic'
p603
(lp604
g286
asS'regimen'
p605
(lp606
g409
ag409
ag360
aS'NCT02390726'
p607
ag526
ag501
ag501
ag501
ag501
ag501
ag252
ag252
ag252
ag537
ag541
ag542
ag233
ag233
ag233
ag233
asS'rowasa'
p608
(lp609
g207
asS'cap'
p610
(lp611
g261
ag324
ag203
ag325
ag233
asS'calcium'
p612
(lp613
S'NCT02010762'
p614
asS'micafungin'
p615
(lp616
g349
asS'iron'
p617
(lp618
S'NCT02546154'
p619
ag284
ag284
aS'NCT02680756'
p620
ag620
ag309
ag286
asS'6-mercaptopurine'
p621
(lp622
g261
ag360
ag361
ag248
ag363
ag554
ag554
ag365
ag203
ag203
ag535
ag263
aS'NCT02506179'
p623
ag317
ag374
ag318
ag233
asS'aspirin'
p624
(lp625
g286
ag395
asS'plug'
p626
(lp627
g290
asS'azathioprine'
p628
(lp629
g451
ag261
ag243
ag314
ag360
ag300
ag361
ag248
ag554
ag554
ag230
aS'NCT02281799'
p630
ag365
ag529
ag324
ag324
ag532
aS'NCT02463305'
p631
ag501
ag227
ag203
ag203
ag535
ag263
ag623
ag354
aS'NCT01494857'
p632
ag632
ag632
ag366
ag367
ag355
ag207
ag368
ag369
ag370
aS'NCT01632462'
p633
ag316
ag316
ag317
ag371
ag325
ag372
ag373
ag375
ag375
ag376
ag576
ag233
ag233
asS'iodine'
p634
(lp635
g239
ag239
asS'entyvio'
p636
(lp637
g331
asS'uceris'
p638
(lp639
g299
asS'al'
p640
(lp641
S'NCT00933296'
p642
asS'imuran'
p643
(lp644
g262
asS'warfarin'
p645
(lp646
g286
ag395
asS'natalizumab'
p647
(lp648
g314
ag207
ag233
asS'sirolimus'
p649
(lp650
g313
asS'infliximab'
p651
(lp652
g352
ag569
ag313
ag358
ag314
ag244
aS'NCT02060318'
p653
ag653
ag225
ag270
ag499
ag499
ag361
ag353
aS'NCT01548014'
p654
aS'NCT02269358'
p655
ag655
ag364
ag226
ag467
ag467
ag324
ag272
ag272
aS'NCT02330458'
p656
ag501
ag203
ag203
ag203
ag263
ag354
ag367
ag574
ag574
ag207
ag369
ag369
ag370
ag316
ag316
ag371
ag325
ag318
aS'NCT02566889'
p657
ag657
ag233
ag233
asS'acetaminophen'
p658
(lp659
g275
asS'atropine'
p660
(lp661
g233
asS'mercaptopurine'
p662
(lp663
g324
ag324
ag227
ag354
ag367
ag369
ag372
ag376
asS'prednisone'
p664
(lp665
g352
ag352
ag352
ag313
ag358
ag299
aS'NCT02267694'
p666
ag225
ag499
ag262
ag262
ag248
ag349
ag324
ag434
ag501
ag263
aS'NCT02435992'
p667
ag252
ag632
ag632
ag207
ag373
ag318
ag233
ag233
ag233
asS'budesonide'
p668
(lp669
g313
ag261
ag360
ag499
ag363
ag349
ag349
ag324
ag501
ag263
ag667
ag252
ag367
ag207
ag325
ag373
ag374
ag318
ag233
asS'mesalamine'
p670
(lp671
g284
ag262
ag248
aS'NCT02120391'
p672
ag672
ag557
ag264
ag252
ag207
ag207
aS'NCT02488954'
p673
aS'NCT02142725'
p674
aS'NCT02460705'
p675
asS'amd'
p676
(lp677
S'NCT00695682'
p678
asS'purpose'
p679
(lp680
S'NCT01244386'
p681
aS'NCT02274714'
p682
ag682
aS'NCT01169207'
p683
ag216
ag595
ag489
asS'pimecrolimus'
p684
(lp685
g233
asS'propofol'
p686
(lp687
g258
asS'thalidomide'
p688
(lp689
g315
asS'apriso'
p690
(lp691
g207
asS'tacrolimus'
p692
(lp693
g313
ag233
asS'multivitamin'
p694
(lp695
S'NCT02463916'
p696
asS'cimzia'
p697
(lp698
g299
ag299
as.